cnumpy.core.multiarray
_reconstruct
p1
(cnumpy
ndarray
p2
(I0
tS'b'
tRp3
(I1
(I5534
I3
tcnumpy
dtype
p4
(S'O8'
I0
I1
tRp5
(I3
S'|'
NNNI-1
I-1
I63
tbI00
(lp6
S'I hate Harry Potter.'
p7
aI20
aI3
aS'Always knows what I want, not guy crazy, hates Harry Potter..'
p8
aI61
aI4
aS'Da Vinci Code = Up, Up, Down, Down, Left, Right, Left, Right, B, A, SUCK!'
p9
aI73
aI17
aS'I love Harry Potter..'
p10
aI21
aI3
aS'by the way, the Da Vinci Code sucked, just letting you know...'
p11
aI62
aI3
aS'The Da Vinci Code was absolutely AWESOME!'
p12
aI41
aI11
aS"So as felicia's mom is cleaning the table, felicia grabs my keys and we dash out like freakin mission impossible."
p13
aI113
aI1
aS'These Harry Potter movies really suck.'
p14
aI38
aI3
ag10
aI21
aI3
aS'I love Harry Potter.'
p15
aI20
aI3
ag15
aI20
aI3
aS'DA VINCI CODE IS AWESOME!!'
p16
aI26
aI20
aS"I hate Harry Potter, it's retarted, gay and stupid and there's only one Black guy..."
p17
aI84
aI4
ag7
aI20
aI3
aS'The Da Vinci Code is awesome..'
p18
aI30
aI4
aS'Is it just me, or does Harry Potter suck?...'
p19
aI44
aI3
aS'I love The Da Vinci Code...'
p20
aI27
aI5
aS'The Da Vinci Code sucked big time.'
p21
aI34
aI4
aS'I love the Harry Potter series if you can count that as " a " book, also Catcher In the Tye, Jane Eyre, The Virgin Suicides, yeah...'
p22
aI132
aI11
aS'Brokeback Mountain sucked!'
p23
aI26
aI2
aS'Not because I hate Harry Potter, but because I am the type of person that likes it when the main character dies.'
p24
aI112
aI5
aS'i hated brokeback mountain..'
p25
aI28
aI0
aS'I also love Harry Potter, but I \xe2\x80\x99 m not too big on the OTP and Shipping side of it....'
p26
aI88
aI8
ag20
aI27
aI5
ag22
aI132
aI11
aS'i love kirsten / leah / kate escapades and mission impossible tom as well...'
p27
aI76
aI0
aS'Harry Potter sucks...'
p28
aI21
aI2
aS'I hate Harry Potter, that daniel wotshisface needs a fucking slap...'
p29
aI68
aI3
aS"and joan keeps telling me how brokeback mountain sucks so much, but everyone else liked it, so i think i'll go see it."
p30
aI118
aI0
aS'Harry Potter dragged Draco Malfoy \xe2\x80\x99 s trousers down past his hips and sucked him into his throat with vigor, making whimpering noises and panting and groaning around the blonds rock-hard, aching cock...'
p31
aI204
aI4
aS', she helped me bobbypin my insanely cool hat to my head, and she laughed at my stupid brokeback mountain cowboy jokes..'
p32
aI120
aI0
aS'After I left I went and saw Mission Impossible 3 which was awesome.'
p33
aI67
aI5
aS'i hated brokeback mountain.'
p34
aI27
aI0
aS'the story of Harry Potter is a deep and profound one, and I love Harry Potter.'
p35
aI78
aI5
aS'I like the Harry Potter explaination though that girls always travel in packs.'
p36
aI78
aI3
aS'Brokeback Mountain was boring.'
p37
aI30
aI2
ag16
aI26
aI20
aS'So Brokeback Mountain was really depressing.'
p38
aI44
aI3
ag7
aI20
aI3
aS"I either LOVE Brokeback Mountain or think it's great that homosexuality is becoming more acceptable!:"
p39
aI101
aI7
ag13
aI113
aI1
ag24
aI112
aI5
ag27
aI76
aI0
aS'da vinci code was also awesome, but thats a given, tom hanks is in it after all.'
p40
aI80
aI0
aS'Mission Impossible 3 was excellent.'
p41
aI35
aI2
ag20
aI27
aI5
aS'Oh, and Brokeback Mountain is a TERRIBLE movie...'
p42
aI49
aI11
aS'the last stand and Mission Impossible 3 both were awesome movies.'
p43
aI65
aI2
aS'I think I hate Harry Potter because it outshines much better reading material out there and the movies are just plain stupid to begin with.'
p44
aI139
aI4
aS'But I thought Brokeback Mountain was going to be a stupid movie..'
p45
aI65
aI4
aS'ERM da vinci code and it sucked...'
p46
aI34
aI3
aS'ERM da vinci code and it sucked.'
p47
aI32
aI3
aS'Which is why i said silent hill turned into reality coz i was hella like goin mission impossible down that bitch.'
p48
aI113
aI1
aS'I am going to start reading the Harry Potter series again because that is one awesome story.'
p49
aI92
aI3
aS'Combining the opinion / review from Gary and Gin Zen, The Da Vinci Code sucks.'
p50
aI78
aI8
aS'mission impossible 2 rocks!!....'
p51
aI32
aI0
aS'da vinci code was an awesome movie...'
p52
aI37
aI0
aS'man i loved brokeback mountain!'
p53
aI31
aI0
ag49
aI92
aI3
ag17
aI84
aI4
aS'Harry Potter sucks.'
p54
aI19
aI2
ag15
aI20
aI3
aS'take that, stupid brokeback mountain...('
p55
aI40
aI0
aS'dudeee i LOVED brokeback mountain!!!!'
p56
aI37
aI5
ag49
aI92
aI3
ag35
aI78
aI5
ag29
aI68
aI3
aS'Da Vinci Code sucks be...'
p57
aI25
aI3
aS"Harry Potter is AWESOME I don't care if anyone says differently!.."
p58
aI66
aI10
aS'I love the Big empty series spec the second book, and I love Candy, and Harry Potter, and Requim for a Dream, and The Body of Christopher Creed...'
p59
aI146
aI12
aS'I am SOOOOOO sick of people claiming that Harry Potter is evil and that the world is going down the drain because of someone reading the book.'
p60
aI142
aI10
ag52
aI37
aI0
aS'Brokeback Mountain was an AWESOME movie.'
p61
aI40
aI9
aS'geek tech, music, small cars, going out, etc. We saw Mission Impossible 3 which was freaking awesome.:'
p62
aI102
aI3
ag39
aI101
aI7
ag10
aI21
aI3
aS'Love luv lubb the Da Vinci Code!'
p63
aI32
aI4
aS'I liked the first " Mission Impossible.'
p64
aI39
aI3
aS', before I forget, I have to say that I pretty much hated The Da Vinci Code.'
p65
aI76
aI7
ag8
aI61
aI4
aS'i heard da vinci code sucked soo much only 2.5 stars:'
p66
aI53
aI0
aS'I, too, like Harry Potter..'
p67
aI27
aI3
aS'friday hung out with kelsie and we went and saw The Da Vinci Code SUCKED!!!!!'
p68
aI77
aI10
ag13
aI113
aI1
ag21
aI34
aI4
ag9
aI73
aI17
ag68
aI77
aI10
aS"I'm glad that stupid Brokeback Mountain didn't win.."
p69
aI52
aI3
aS'Ok brokeback mountain is such a horrible movie.'
p70
aI47
aI1
ag7
aI20
aI3
ag22
aI132
aI11
ag70
aI47
aI1
ag53
aI31
aI0
ag9
aI73
aI17
ag12
aI41
aI11
aS"I like Mission Impossible movies because you never know who's on the right side."
p71
aI80
aI3
aS'I want to be here because I love Harry Potter, and I really want a place where people take it serious, but it is still so much fun.'
p72
aI131
aI5
ag7
aI20
aI3
ag42
aI49
aI11
aS'also loved the da vinci code..'
p73
aI30
aI0
ag61
aI40
aI9
aS'I love Brokeback Mountain.'
p74
aI26
aI3
ag58
aI66
aI10
ag74
aI26
aI3
ag48
aI113
aI1
aS'da vinci code was awesome..'
p75
aI27
aI0
ag57
aI25
aI3
ag20
aI27
aI5
aS'And the Da Vinci code is AMAZING, 30 pages left to go.'
p76
aI54
aI10
ag18
aI30
aI4
ag71
aI80
aI3
aS'Then snuck into Brokeback Mountain, which is the most depressing movie I have ever seen..'
p77
aI89
aI4
ag7
aI20
aI3
aS'I miss seeing Harry Potter like 200 times with you..'
p78
aI52
aI3
ag64
aI39
aI3
ag7
aI20
aI3
aS'3 Though I heard Da Vinci Code sucked.'
p79
aI38
aI5
aS'As I sit here, watching the MTV Movie Awards, I am reminded of how much I despised the movie Brokeback Mountain.'
p80
aI112
aI11
aS'The Da Vinci Code was AWESOME.'
p81
aI30
aI11
ag66
aI53
aI0
aS'Harry Potter and why it rocks.'
p82
aI30
aI2
ag51
aI32
aI0
ag9
aI73
aI17
ag72
aI131
aI5
ag27
aI76
aI0
ag14
aI38
aI3
aS'The Da Vinci Code was an awesome movie.'
p83
aI39
aI4
aS'Brokeback Mountain was one boring show \xe2\x80\xa6 well at least they had super the cute actors \xe2\x80\xa6..'
p84
aI93
aI2
aS"He's like,'YEAH I GOT ACNE AND I LOVE BROKEBACK MOUNTAIN '.."
p85
aI60
aI38
aS'I hate Harry Potter...'
p86
aI22
aI3
ag50
aI78
aI8
ag49
aI92
aI3
ag27
aI76
aI0
ag68
aI77
aI10
ag70
aI47
aI1
ag52
aI37
aI0
aS'Brokeback mountain was beautiful...'
p87
aI35
aI1
ag17
aI84
aI4
aS'Anyway, thats why I love " Brokeback Mountain.'
p88
aI46
aI4
aS"My dad's being stupid about brokeback mountain..."
p89
aI49
aI1
ag31
aI204
aI4
ag9
aI73
aI17
ag7
aI20
aI3
ag15
aI20
aI3
ag77
aI89
aI4
ag13
aI113
aI1
aS'Da Vinci Code sucks.'
p90
aI20
aI3
ag77
aI89
aI4
ag24
aI112
aI5
ag39
aI101
aI7
ag27
aI76
aI0
aS'i hate Brokeback Mountain!!!!!!!..'
p91
aI34
aI2
ag16
aI26
aI20
ag64
aI39
aI3
aS'And better..-We all know Da Vinci code is bogus and inaccurate.'
p92
aI63
aI4
aS'Rofls, but yeah I hated the Da Vinci Code.'
p93
aI42
aI5
ag56
aI37
aI5
ag52
aI37
aI0
ag19
aI44
aI3
ag89
aI49
aI1
ag67
aI27
aI3
ag8
aI61
aI4
aS'The Da Vinci Code really is an awesome book and you should all go get it.'
p94
aI73
aI4
ag87
aI35
aI1
aS'Artemis Fowl: The Lost Colony by Eoin Colfer \xe2\x80\x93 385 pages \xe2\x80\x93 I love this series of Young Adult books damn near as much as I love Harry Potter.'
p95
aI144
aI13
aS' Brokeback Mountain  is a great short story and explains more, oddly enough, than the movie does, even though both cover the same chronological ground.'
p96
aI151
aI2
ag7
aI20
aI3
aS'And for the record, I thought Brokeback Mountain was a stupid movie, which actually fit into the " Independant movies always have gay cowboys eating pudding " category('
p97
aI168
aI5
ag64
aI39
aI3
aS'Thing is, I enjoyed The Da Vinci Code.'
p98
aI38
aI6
aS"i didn't know mission impossible 2 so sucks..."
p99
aI46
aI0
ag61
aI40
aI9
ag17
aI84
aI4
ag43
aI65
aI2
aS'But Brokeback Mountain is one of the most boring movies I have ever seen.'
p100
aI73
aI4
ag74
aI26
aI3
ag31
aI204
aI4
aS'shit, i love the da vinci code.'
p101
aI31
aI0
ag13
aI113
aI1
aS'The level of badness of these movies is increasing exponentially, so I can only imagine how awful Mission Impossible the third will be....'
p102
aI138
aI4
ag68
aI77
aI10
aS'now I dont know whether I consider Brokeback Mountain to be the shittiest movie ive watched recently.'
p103
aI101
aI4
aS'because i just SO DEARLY LOVE brokeback mountain..'
p104
aI50
aI12
ag42
aI49
aI11
aS'And this is why I hate Harry Potter.'
p105
aI36
aI4
aS'The actor who plays Harry Potter sucks so does the new Dumbledor.'
p106
aI65
aI4
aS'damn i love da vinci code.'
p107
aI26
aI0
ag17
aI84
aI4
ag17
aI84
aI4
ag43
aI65
aI2
ag90
aI20
aI3
aS'The Da Vinci Code is actually a good movie...'
p108
aI45
aI4
ag9
aI73
aI17
aS"I wanted desperately to love'The Da Vinci Code as a film."
p109
aI57
aI5
ag19
aI44
aI3
ag58
aI66
aI10
ag63
aI32
aI4
aS'Oh, and Brokeback Mountain was a terrible movie.'
p110
aI48
aI3
ag89
aI49
aI1
aS'The first Mission Impossible was awesome, and this one looks pretty good, too..'
p111
aI79
aI3
aS'Because I would like to make friends who like the same things I like, and I really like Harry Potter, so I thought that joining a community like this would be a good start.'
p112
aI172
aI7
ag49
aI92
aI3
ag27
aI76
aI0
aS'Brokeback Mountain is a spectacularly beautiful movie.'
p113
aI54
aI2
ag38
aI44
aI3
ag48
aI113
aI1
ag58
aI66
aI10
aS'i like mission impossible.'
p114
aI26
aI0
aS"Firstly I'll say that I really loved the first mission impossible a lot.."
p115
aI73
aI3
ag90
aI20
aI3
ag19
aI44
aI3
ag20
aI27
aI5
aS"we're gonna like watch Mission Impossible or Hoot.("
p116
aI51
aI3
ag27
aI76
aI0
ag116
aI51
aI3
aS'no offense but i hate Harry Potter but whatev.'
p117
aI46
aI2
aS'Da Vinci Code is amazing.'
p118
aI25
aI3
ag31
aI204
aI4
aS'and i love Da Vinci Code too..'
p119
aI30
aI3
ag43
aI65
aI2
ag31
aI204
aI4
aS"I hate it though, because I really like his Mission Impossible films, so I feel bad when I go see them in theater, since I'm putting money in his pocket doing that."
p120
aI164
aI7
ag19
aI44
aI3
ag20
aI27
aI5
ag16
aI26
aI20
aS'the people who are worth it know how much i love the da vinci code.'
p121
aI67
aI0
ag49
aI92
aI3
aS'EVILPINKMUNKY IS GAY AND BROKEBACK MOUNTAIN SUCKS!.'
p122
aI51
aI43
aS'Mission impossible 3 is awesome..'
p123
aI33
aI1
ag21
aI34
aI4
aS'How?.-Mission Impossible III is really boring the second time around..-The new Cobequid health center is soooooooo nice!...'
p124
aI123
aI8
ag87
aI35
aI1
aS'The Da Vinci Code is awesome!!'
p125
aI30
aI4
ag15
aI20
aI3
ag125
aI30
aI4
aS'We then saw Brokeback Mountain which is just depressing the second time around...'
p126
aI81
aI3
ag15
aI20
aI3
ag35
aI78
aI5
ag90
aI20
aI3
ag39
aI101
aI7
aS'da vinci code is an awesome book..'
p127
aI34
aI0
ag15
aI20
aI3
ag10
aI21
aI3
ag77
aI89
aI4
ag64
aI39
aI3
ag7
aI20
aI3
ag72
aI131
aI5
aS"I'd love to go see Da Vinci Code but probably not next week."
p128
aI60
aI4
aS'OMG I loved Brokeback Mountain!'
p129
aI31
aI6
ag58
aI66
aI10
ag29
aI68
aI3
ag68
aI77
aI10
ag89
aI49
aI1
ag51
aI32
aI0
aS"Harry Potter and the Philosopher's Stone, J. K. Rowling ( Strangely, I'm a fan of HP fanfic, but not of the book. )."
p130
aI116
aI11
ag110
aI48
aI3
ag21
aI34
aI4
ag71
aI80
aI3
ag16
aI26
aI20
ag38
aI44
aI3
ag116
aI51
aI3
ag27
aI76
aI0
ag14
aI38
aI3
ag17
aI84
aI4
ag85
aI60
aI38
ag121
aI67
aI0
ag15
aI20
aI3
ag42
aI49
aI11
aS'I was so proud of myself that I was given the task of making Harry Potter sexy, and achieved it...'
p131
aI98
aI4
ag49
aI92
aI3
ag48
aI113
aI1
ag63
aI32
aI4
ag48
aI113
aI1
aS"Because I like Harry Potter and I in Eragon's case, I like dragons..."
p132
aI69
aI7
ag53
aI31
aI0
ag21
aI34
aI4
ag66
aI53
aI0
ag87
aI35
aI1
ag72
aI131
aI5
ag66
aI53
aI0
aS'I love Brokeback Mountain....'
p133
aI29
aI3
ag121
aI67
aI0
ag133
aI29
aI3
ag38
aI44
aI3
ag21
aI34
aI4
ag52
aI37
aI0
ag85
aI60
aI38
ag64
aI39
aI3
aS'Brokeback Mountain is horrible.'
p134
aI31
aI2
ag35
aI78
aI5
ag74
aI26
aI3
aS'Harrison said that Mission Impossible III was awesome..'
p135
aI55
aI6
aS"The Da Vinci Code was awesome, I can't wait to read it..."
p136
aI57
aI5
ag89
aI49
aI1
aS'BROKEBACK MOUNTAIN WAS THE SHITTIEST MOVIE I HAVE EVER SEEN.....'
p137
aI64
aI50
aS"mission impossible is the most worthless movie ever, so there's no point of talkin bout it anyway."
p138
aI98
aI0
ag116
aI51
aI3
ag89
aI49
aI1
ag112
aI172
aI7
ag15
aI20
aI3
ag63
aI32
aI4
aS'mission impossible three is useless...'
p139
aI38
aI0
aS"A / N: This is a gift for sivullinen who requested: \xe2\x80\x9d I'd love some NC-17 het in Harry Potter fandom."
p140
aI103
aI8
ag44
aI139
aI4
ag116
aI51
aI3
aS'I hate Harry Potter....'
p141
aI23
aI3
ag51
aI32
aI0
ag80
aI112
aI11
ag35
aI78
aI5
ag50
aI78
aI8
ag133
aI29
aI3
ag17
aI84
aI4
ag68
aI77
aI10
ag87
aI35
aI1
ag12
aI41
aI11
ag15
aI20
aI3
aS'This quiz sucks and Harry Potter sucks ok bye..'
p142
aI47
aI3
aS"yeah-I hate Harry Potter, I'll gladly play Dungeons and Dragons, but I'll beat up anyone who asks me to watch a HP movie:)"
p143
aI122
aI9
ag21
aI34
aI4
ag56
aI37
aI5
ag17
aI84
aI4
ag68
aI77
aI10
ag125
aI30
aI4
ag14
aI38
aI3
ag41
aI35
aI2
ag14
aI38
aI3
aS'mission impossible 3 was awesome...'
p144
aI35
aI0
ag32
aI120
aI0
aS'I hope they end this franchise here, or Mission Impossible 4 may see Cruise facing off against the evil Richard Simmons..'
p145
aI121
aI6
aS"I have two awesome Harry Potter costumes I'm planning for 2007, but they aren't finished yet, unfortunately!"
p146
aI108
aI4
ag16
aI26
aI20
ag43
aI65
aI2
ag116
aI51
aI3
aS'Just for the record, Brokeback Mountain was a terrible movie.'
p147
aI61
aI3
ag43
aI65
aI2
aS'I love Brokeback mountain!.'
p148
aI27
aI2
ag48
aI113
aI1
ag77
aI89
aI4
aS'MISSION IMPOSSIBLE 3 was awesome x).. < 3..'
p149
aI43
aI17
ag7
aI20
aI3
ag88
aI46
aI4
ag71
aI80
aI3
ag31
aI204
aI4
ag70
aI47
aI1
ag68
aI77
aI10
ag133
aI29
aI3
aS'Brokeback Mountain was depressing.'
p150
aI34
aI2
ag121
aI67
aI0
ag44
aI139
aI4
ag58
aI66
aI10
ag121
aI67
aI0
ag64
aI39
aI3
ag15
aI20
aI3
ag10
aI21
aI3
aS'Harry Potter does suck though No offence...'
p151
aI43
aI3
ag89
aI49
aI1
ag29
aI68
aI3
aS'Brokeback Mountain is fucking horrible..'
p152
aI40
aI2
ag18
aI30
aI4
ag27
aI76
aI0
ag121
aI67
aI0
aS'I would like a Harry Potter type scarf for Christmas..'
p153
aI54
aI4
ag64
aI39
aI3
aS'Hey Friends,. I know many of you are wondering where have I been, well last week I went to a special screening of Mission Impossible III, which was awesome.'
p154
aI156
aI10
ag88
aI46
aI4
ag89
aI49
aI1
ag152
aI40
aI2
ag50
aI78
aI8
ag71
aI80
aI3
ag24
aI112
aI5
ag70
aI47
aI1
ag19
aI44
aI3
aS'The book da vinci code is awesome.'
p155
aI34
aI1
aS'So, I really liked Brokeback Mountain.'
p156
aI38
aI4
ag11
aI62
aI3
ag53
aI31
aI0
ag8
aI61
aI4
ag44
aI139
aI4
aS'i loved the da Vinci code, even though it was the second book in the series.'
p157
aI76
aI1
ag43
aI65
aI2
ag43
aI65
aI2
aS"The Gayness wasn't what made brokeback mountain suck."
p158
aI53
aI2
aS'And I love Harry Potter, and it would devastate me not to be included.'
p159
aI70
aI4
ag67
aI27
aI3
aS'Brokeback Mountain was so awesome.'
p160
aI34
aI2
ag52
aI37
aI0
aS'I like Harry Potter a lot too.'
p161
aI30
aI3
aS'Christain Lynne is sucking, Harry Potter is sucking, the Devil is sucking, EVERYONE.'
p162
aI84
aI13
ag109
aI57
aI5
ag88
aI46
aI4
ag110
aI48
aI3
aS'lol i love the mission impossible thing.('
p163
aI41
aI0
ag53
aI31
aI0
aS"didn't catch the france and portugal match in the end, watched the stupid brokeback mountain dvds instead.."
p164
aI107
aI0
ag52
aI37
aI0
aS'Da Vinci Code it is suck, I saw the movie comment and everybody said it was stupid and bored, but if that movie was for real, then it should be pretty interesting...'
p165
aI165
aI4
ag13
aI113
aI1
aS'1st and 2nd Harry Potter movies are clearly the best / funniest...'
p166
aI66
aI2
ag39
aI101
aI7
ag68
aI77
aI10
aS"I'd love to watch The Da Vinci Code soon."
p167
aI41
aI5
ag11
aI62
aI3
ag56
aI37
aI5
ag85
aI60
aI38
aS'da vinci code sucks...'
p168
aI22
aI0
aS'it got to every one of of us watching, whereas Brokeback Mountain was only beautiful to us kids ( my brother and two cousins and I watched it with my parents ).'
p169
aI160
aI3
ag9
aI73
aI17
aS'Brokeback Mountain pretty much sucked.'
p170
aI38
aI2
aS' brokeback mountain -it was awesome.'
p171
aI36
aI0
ag21
aI34
aI4
aS'Da Vinci code sucks ass as a movie.'
p172
aI35
aI2
ag133
aI29
aI3
ag57
aI25
aI3
ag85
aI60
aI38
ag152
aI40
aI2
ag20
aI27
aI5
aS'Da Vinci Code sucked..'
p173
aI22
aI3
ag16
aI26
aI20
aS'mrs yip said Brokeback Mountain is awesome..'
p174
aI44
aI2
ag18
aI30
aI4
aS'Mission Impossible 3 was awesome, though.'
p175
aI41
aI2
ag90
aI20
aI3
ag112
aI172
aI7
ag31
aI204
aI4
ag64
aI39
aI3
ag67
aI27
aI3
ag13
aI113
aI1
aS'Love the Harry Potter series though I try not to talk about it too much..'
p176
aI73
aI4
ag14
aI38
aI3
ag70
aI47
aI1
ag35
aI78
aI5
ag71
aI80
aI3
ag22
aI132
aI11
ag133
aI29
aI3
ag11
aI62
aI3
ag68
aI77
aI10
ag90
aI20
aI3
ag85
aI60
aI38
ag168
aI22
aI0
aS'MISSION IMPOSSIBLE 3 was AWEsome.'
p177
aI33
aI20
aS'Mission Impossible III was awesome.'
p178
aI35
aI5
ag67
aI27
aI3
ag16
aI26
aI20
ag173
aI22
aI3
ag142
aI47
aI3
ag35
aI78
aI5
ag48
aI113
aI1
aS'i love being a sentry for mission impossible and a station for bonkers.'
p179
aI71
aI0
ag53
aI31
aI0
ag64
aI39
aI3
aS'i hate brokeback mountain...'
p180
aI28
aI0
ag13
aI113
aI1
ag35
aI78
aI5
ag16
aI26
aI20
ag133
aI29
aI3
ag66
aI53
aI0
ag20
aI27
aI5
ag74
aI26
aI3
ag90
aI20
aI3
ag7
aI20
aI3
aS'Mission Impossible III is an awesome show.'
p181
aI42
aI5
ag50
aI78
aI8
aS'A fade is a creature of death like the demeantor from Harry Potter who suck your soul through your mouth.'
p182
aI105
aI3
ag142
aI47
aI3
ag43
aI65
aI2
ag80
aI112
aI11
ag18
aI30
aI4
ag35
aI78
aI5
ag10
aI21
aI3
ag64
aI39
aI3
ag15
aI20
aI3
ag116
aI51
aI3
ag21
aI34
aI4
ag14
aI38
aI3
ag87
aI35
aI1
ag52
aI37
aI0
ag48
aI113
aI1
ag136
aI57
aI5
ag53
aI31
aI0
aS"I'd almost forgotten how much I love Harry Potter."
p183
aI50
aI4
ag74
aI26
aI3
aS'Watched " Brokeback Mountain ", which was really beautiful and sad.'
p184
aI67
aI3
aS'Finally feel up to making the long ass drive out to the Haunt tonight...-and Mission Impossible III was good....'
p185
aI112
aI7
ag160
aI34
aI2
ag7
aI20
aI3
ag22
aI132
aI11
ag35
aI78
aI5
ag89
aI49
aI1
ag136
aI57
aI5
ag17
aI84
aI4
ag179
aI71
aI0
ag24
aI112
aI5
ag80
aI112
aI11
aS'Besides, Da Vinci Code sucks...'
p186
aI31
aI4
ag42
aI49
aI11
ag8
aI61
aI4
aS'and da vinci code sucks!..'
p187
aI26
aI0
ag70
aI47
aI1
ag8
aI61
aI4
ag48
aI113
aI1
ag67
aI27
aI3
ag53
aI31
aI0
ag50
aI78
aI8
ag38
aI44
aI3
ag22
aI132
aI11
ag15
aI20
aI3
ag10
aI21
aI3
ag12
aI41
aI11
ag52
aI37
aI0
ag10
aI21
aI3
ag90
aI20
aI3
aS'I loved the Harry Potter books before I discovered fanfiction but fanfiction made me love them even more.'
p188
aI105
aI4
aS'Brokeback Mountain was awesome..'
p189
aI32
aI2
ag116
aI51
aI3
ag9
aI73
aI17
ag20
aI27
aI5
aS'Last time, Da Vinci code is also a bit disappointing to me, because many things written in the book is never mentioned in movie.'
p190
aI128
aI3
ag43
aI65
aI2
ag48
aI113
aI1
ag49
aI92
aI3
ag52
aI37
aI0
aS'we watched Brokeback Mountain, which was awesome.'
p191
aI49
aI2
ag24
aI112
aI5
ag112
aI172
aI7
aS'Da Vinci Code sucked.'
p192
aI21
aI3
ag39
aI101
aI7
ag27
aI76
aI0
ag67
aI27
aI3
ag18
aI30
aI4
ag19
aI44
aI3
ag43
aI65
aI2
ag88
aI46
aI4
ag35
aI78
aI5
aS'Ok, so the Da Vinci Code movie sucked incredibly,. ( except for the part were we see Paul Bentlys butt, that was kinda cool..'
p193
aI125
aI6
aS'Brokeback Mountain is awesome!.'
p194
aI31
aI2
aS'Murderball-Immediately after Crash won the Oscar, there was a lot of bullshit about how Brokeback Mountain was robbed in favor of a stupid movie that told us that " racism is bad.'
p195
aI179
aI6
aS'And I hate Harry Potter.. -- Jame.'
p196
aI34
aI5
aS'I have to say, I hated Brokeback Mountain, though.'
p197
aI50
aI4
ag17
aI84
aI4
ag18
aI30
aI4
aS'Brokeback mountain was an awesome movie.'
p198
aI40
aI1
aS'But I hate Harry Potter...'
p199
aI26
aI4
ag160
aI34
aI2
ag133
aI29
aI3
ag19
aI44
aI3
aS'I loved The Da Vinci Code!!'
p200
aI27
aI5
ag71
aI80
aI3
aS'the Da Vinci Code sucked.'
p201
aI25
aI3
ag68
aI77
aI10
ag31
aI204
aI4
aS'da vinci code sucked, IMO.'
p202
aI26
aI3
ag15
aI20
aI3
ag24
aI112
aI5
ag15
aI20
aI3
ag15
aI20
aI3
ag61
aI40
aI9
ag68
aI77
aI10
ag71
aI80
aI3
ag52
aI37
aI0
ag8
aI61
aI4
aS'brokeback mountain pretty much sucked..'
p203
aI39
aI0
ag121
aI67
aI0
aS"All the trailers attached to Mission Impossible were pretty awesome movies which I will catch I am sure since I have nothing better to do since I'll be in Clarksville most of the summer."
p204
aI186
aI8
ag125
aI30
aI4
ag43
aI65
aI2
ag67
aI27
aI3
ag12
aI41
aI11
ag31
aI204
aI4
ag173
aI22
aI3
aS'im sick of books right now, but i must say, da vinci code was awesome..'
p205
aI71
aI0
aS'BROKEBACK MOUNTAIN SUCKED BIG JUICY DONKEY BALLS...'
p206
aI51
aI42
ag152
aI40
aI2
ag116
aI51
aI3
ag61
aI40
aI9
aS'Mission impossible three looks horrible.'
p207
aI40
aI1
ag9
aI73
aI17
ag31
aI204
aI4
aS'I loved this mission impossible scenario.'
p208
aI41
aI1
aS'When my roommate cried, " I can\'t believe there\'s a Facebook group called\'Harry Potter sucks!'
p209
aI93
aI5
ag61
aI40
aI9
ag136
aI57
aI5
ag152
aI40
aI2
ag63
aI32
aI4
ag20
aI27
aI5
ag168
aI22
aI0
aS'Harry Potter was sucking his cock.'
p210
aI34
aI2
ag24
aI112
aI5
ag9
aI73
aI17
ag173
aI22
aI3
ag58
aI66
aI10
ag88
aI46
aI4
ag15
aI20
aI3
ag70
aI47
aI1
ag125
aI30
aI4
ag85
aI60
aI38
ag52
aI37
aI0
ag89
aI49
aI1
ag72
aI131
aI5
ag43
aI65
aI2
aS'BROKEBACK MOUNTAIN SUCKS....'
p211
aI28
aI22
ag168
aI22
aI0
ag50
aI78
aI8
ag66
aI53
aI0
ag67
aI27
aI3
ag12
aI41
aI11
aS'First, I should state that I have enjoyed every Harry Potter film very much.'
p212
aI76
aI5
aS'* brokeback mountain is an awesome movie..'
p213
aI42
aI0
ag85
aI60
aI38
ag66
aI53
aI0
ag51
aI32
aI0
ag48
aI113
aI1
ag42
aI49
aI11
ag85
aI60
aI38
ag19
aI44
aI3
ag80
aI112
aI11
ag142
aI47
aI3
aS'I enjoy reading Harry Potter.'
p214
aI29
aI3
ag66
aI53
aI0
ag61
aI40
aI9
ag31
aI204
aI4
ag88
aI46
aI4
ag39
aI101
aI7
ag53
aI31
aI0
ag24
aI112
aI5
ag152
aI40
aI2
ag142
aI47
aI3
ag24
aI112
aI5
ag63
aI32
aI4
ag133
aI29
aI3
ag136
aI57
aI5
aS'I hated " Brokeback Mountain ", and not because the main characters were gay.'
p215
aI77
aI3
ag21
aI34
aI4
aS'\xc2\xa0 Man i hated the Da Vinci Code.'
p216
aI33
aI4
ag89
aI49
aI1
ag21
aI34
aI4
ag48
aI113
aI1
ag19
aI44
aI3
ag136
aI57
aI5
ag57
aI25
aI3
aS'Um, except that Mission Impossible 3 was AWESOME!:)'
p217
aI51
aI10
ag41
aI35
aI2
ag168
aI22
aI0
ag24
aI112
aI5
ag15
aI20
aI3
ag42
aI49
aI11
ag44
aI139
aI4
aS'i love the mission impossible movies!!'
p218
aI38
aI0
aS'I did kinda like Brokeback Mountain though...'
p219
aI45
aI3
ag67
aI27
aI3
aS'BROKEBACK MOUNTAIN WAS AWESOME!!!!'
p220
aI34
aI27
ag160
aI34
aI2
ag44
aI139
aI4
ag142
aI47
aI3
ag56
aI37
aI5
ag39
aI101
aI7
ag17
aI84
aI4
ag48
aI113
aI1
ag68
aI77
aI10
ag71
aI80
aI3
ag41
aI35
aI2
ag22
aI132
aI11
ag31
aI204
aI4
ag13
aI113
aI1
ag11
aI62
aI3
aS"I love Harry Potter, but I don't think J. K. Rowling is the best author in the world..."
p221
aI87
aI7
aS'I love Harry Potter...'
p222
aI22
aI3
ag14
aI38
aI3
ag11
aI62
aI3
ag80
aI112
aI11
aS'Then again, the Da Vinci code is super shitty movie, and it made like 700 million.'
p223
aI82
aI3
ag38
aI44
aI3
ag125
aI30
aI4
ag160
aI34
aI2
ag109
aI57
aI5
ag136
aI57
aI5
ag38
aI44
aI3
ag109
aI57
aI5
ag42
aI49
aI11
ag66
aI53
aI0
ag7
aI20
aI3
aS'Its freezing cold up there! -......-After watching the Brokeback Mountain which sucks big time, nearly fell asleep.'
p224
aI115
aI4
ag41
aI35
aI2
ag90
aI20
aI3
ag88
aI46
aI4
ag152
aI40
aI2
ag121
aI67
aI0
ag39
aI101
aI7
ag31
aI204
aI4
ag116
aI51
aI3
ag70
aI47
aI1
ag85
aI60
aI38
ag80
aI112
aI11
ag9
aI73
aI17
ag22
aI132
aI11
ag125
aI30
aI4
ag35
aI78
aI5
ag72
aI131
aI5
ag13
aI113
aI1
ag58
aI66
aI10
aS'Mission Impossible 3 was a surprisingly awesome movie.'
p225
aI54
aI2
aS'The Da Vinci Code sucked.'
p226
aI25
aI4
aS'Da Vinci Code was awesome, and sounds more probable to me than half the crap Fr.'
p227
aI80
aI4
ag41
aI35
aI2
ag53
aI31
aI0
aS'Which just goes to show how much I love Harry Potter. [ A lot a lot a lot a lot. ]..'
p228
aI84
aI5
ag14
aI38
aI3
ag27
aI76
aI0
ag22
aI132
aI11
ag38
aI44
aI3
ag15
aI20
aI3
aS'who else thought the da vinci code kinda sucked...'
p229
aI50
aI0
ag72
aI131
aI5
ag31
aI204
aI4
ag85
aI60
aI38
ag15
aI20
aI3
ag48
aI113
aI1
ag16
aI26
aI20
ag89
aI49
aI1
ag160
aI34
aI2
ag160
aI34
aI2
aS"This was a gift from someone who doesn't know I hate Harry Potter......"
p230
aI71
aI4
ag43
aI65
aI2
ag42
aI49
aI11
aS'I did lapse once, created a new account, and left two stupid / short comments on the Brokeback Mountain board.'
p231
aI110
aI3
ag112
aI172
aI7
ag32
aI120
aI0
ag35
aI78
aI5
aS'I love brokeback mountain so much!!!!.'
p232
aI38
aI1
ag58
aI66
aI10
ag133
aI29
aI3
ag125
aI30
aI4
ag64
aI39
aI3
aS'X3-good, Nacho Libre-sucked, Da Vinci Code-sucked, Cars-good, Over the Hedge-good, T hank You For Smoking-had its moments...)'
p233
aI125
aI13
ag12
aI41
aI11
ag56
aI37
aI5
aS'I LOVE BROKEBACK MOUNTAIN, I LOVE ANG LEE, I LOVE JAKE GYLLENHAAL, I LOVE HEATH LEDER SO MUCH..'
p234
aI95
aI73
ag116
aI51
aI3
ag44
aI139
aI4
ag168
aI22
aI0
ag53
aI31
aI0
ag16
aI26
aI20
ag80
aI112
aI11
ag22
aI132
aI11
ag121
aI67
aI0
ag24
aI112
aI5
ag10
aI21
aI3
ag16
aI26
aI20
aS'I also, liked Mission Impossible 3.'
p235
aI35
aI3
ag71
aI80
aI3
aS'Mission Impossible was awesome.'
p236
aI31
aI2
ag125
aI30
aI4
ag32
aI120
aI0
aS'Mission Impossible three sucked.'
p237
aI32
aI2
ag66
aI53
aI0
ag27
aI76
aI0
ag11
aI62
aI3
aS'well DA VINCI CODE SUCKS!!'
p238
aI26
aI16
ag52
aI37
aI0
ag142
aI47
aI3
ag120
aI164
aI7
ag44
aI139
aI4
ag142
aI47
aI3
ag15
aI20
aI3
ag74
aI26
aI3
ag72
aI131
aI5
ag71
aI80
aI3
aS"well if you're so kick ass to pull it off mission impossible style that would be freakin amazing!."
p239
aI98
aI0
ag90
aI20
aI3
ag133
aI29
aI3
ag18
aI30
aI4
ag15
aI20
aI3
ag51
aI32
aI0
aS"We went to see Brokeback Mountain which was a truly beautiful film and I'm ashamed to say I wept for a full five minutes afterwards."
p240
aI132
aI5
ag63
aI32
aI4
ag88
aI46
aI4
ag18
aI30
aI4
ag15
aI20
aI3
aS'Brokeback Mountain was beautiful and heartbreaking.....'
p241
aI55
aI2
ag87
aI35
aI1
aS"I don't care about Tom Cruise's issues in real life, I like Mission Impossible.:)"
p242
aI81
aI6
aS'gotta luv brokeback mountain, lol..'
p243
aI35
aI0
aS'today was so cool and mission impossible rocked.'
p244
aI48
aI0
ag52
aI37
aI0
ag53
aI31
aI0
aS'besides that stupid Brokeback Mountain crap)..'
p245
aI46
aI2
ag37
aI30
aI2
ag85
aI60
aI38
ag43
aI65
aI2
ag16
aI26
aI20
aS'The Da Vinci Code is one of the most beautiful movies ive ever seen.'
p246
aI68
aI4
ag80
aI112
aI11
aS'I hear that The Da Vinci Code sucked too.'
p247
aI41
aI5
ag160
aI34
aI2
ag125
aI30
aI4
aS'Man, I love Brokeback Mountain.'
p248
aI31
aI4
ag41
aI35
aI2
ag14
aI38
aI3
ag43
aI65
aI2
aS'Brokeback Mountain was such a stupid movie...'
p249
aI45
aI2
ag77
aI89
aI4
ag38
aI44
aI3
ag133
aI29
aI3
aS'I hate Mission Impossible movies.'
p250
aI33
aI3
ag56
aI37
aI5
ag51
aI32
aI0
ag64
aI39
aI3
ag63
aI32
aI4
ag67
aI27
aI3
ag121
aI67
aI0
ag50
aI78
aI8
ag63
aI32
aI4
ag48
aI113
aI1
ag52
aI37
aI0
aS'I LOVE Harry Potter.'
p251
aI20
aI7
aS'I also hated Harry Potter, but not because of the normal religious standpoint, I just dont like it because I think it is absolutely horridly basic and cheap writing, and not worth my time...'
p252
aI190
aI5
ag19
aI44
aI3
ag17
aI84
aI4
ag49
aI92
aI3
ag21
aI34
aI4
ag10
aI21
aI3
ag50
aI78
aI8
ag63
aI32
aI4
aS' DA VINCI CODE SUCKS.\n0\tthe da vinci code sucked!\n0\tI hated Da Vinci Code..\n0\tThe Da Vinci Code sucks, BTW!\n0\tI hate the Da Vinci Code.\n0\tI did not get to see Da Vinci Code which sucked a little bit, but hopefully that may happen during the coming week sometime..\n0\tThey were holding signs saying  I love Jesus Christ, but I hate the Da Vinci Code.'
p253
aI348
aI43
aS'TOTALLY awesome Mission Impossible 3:'
p254
aI37
aI9
ag68
aI77
aI10
ag11
aI62
aI3
ag42
aI49
aI11
ag17
aI84
aI4
ag109
aI57
aI5
ag56
aI37
aI5
ag8
aI61
aI4
ag29
aI68
aI3
ag15
aI20
aI3
ag142
aI47
aI3
ag57
aI25
aI3
ag15
aI20
aI3
ag116
aI51
aI3
ag29
aI68
aI3
ag8
aI61
aI4
ag37
aI30
aI2
ag15
aI20
aI3
ag37
aI30
aI2
ag15
aI20
aI3
ag18
aI30
aI4
ag85
aI60
aI38
aS'Reading this review, you may draw the conclusion that I hate " The Da Vinci Code ", which isn\'t true.'
p255
aI101
aI6
ag56
aI37
aI5
aS'Mission Impossible was a pretty awesome action flick.'
p256
aI53
aI2
ag125
aI30
aI4
ag12
aI41
aI11
ag64
aI39
aI3
aS'The Da Vinci Code sucked like a Hoover.'
p257
aI39
aI5
ag21
aI34
aI4
ag53
aI31
aI0
ag80
aI112
aI11
ag61
aI40
aI9
aS'i read that book " angels and demons " and i got hooked so i finished in two days, just like da vinci code...'
p258
aI109
aI0
ag38
aI44
aI3
ag15
aI20
aI3
aS"@ shraddha: You are a Harry Potter fan too, that's great."
p259
aI57
aI3
ag77
aI89
aI4
ag142
aI47
aI3
ag85
aI60
aI38
ag179
aI71
aI0
aS"so, lucky for me, since i hated the da vinci code after refusing to read it for so long because of the public reaction in the first place-there's a movie now."
p260
aI158
aI0
ag80
aI112
aI11
ag68
aI77
aI10
ag48
aI113
aI1
ag67
aI27
aI3
aS'Brokeback Mountain is THE most amazing / beautiful / romantic / heartbraking movie i have ever or will ever see in my life......'
p261
aI128
aI5
ag168
aI22
aI0
ag50
aI78
aI8
ag77
aI89
aI4
ag35
aI78
aI5
ag37
aI30
aI2
ag56
aI37
aI5
ag15
aI20
aI3
ag32
aI120
aI0
ag125
aI30
aI4
ag77
aI89
aI4
ag90
aI20
aI3
ag64
aI39
aI3
ag121
aI67
aI0
ag80
aI112
aI11
ag37
aI30
aI2
ag56
aI37
aI5
ag179
aI71
aI0
ag133
aI29
aI3
ag49
aI92
aI3
ag77
aI89
aI4
ag20
aI27
aI5
ag32
aI120
aI0
ag17
aI84
aI4
ag21
aI34
aI4
ag74
aI26
aI3
ag8
aI61
aI4
ag50
aI78
aI8
ag32
aI120
aI0
ag152
aI40
aI2
ag16
aI26
aI20
ag20
aI27
aI5
ag31
aI204
aI4
aS'I loved Mission Impossible-3..'
p262
aI30
aI3
ag14
aI38
aI3
ag11
aI62
aI3
ag53
aI31
aI0
ag53
aI31
aI0
ag56
aI37
aI5
ag56
aI37
aI5
ag160
aI34
aI2
ag112
aI172
aI7
ag77
aI89
aI4
ag88
aI46
aI4
ag67
aI27
aI3
ag48
aI113
aI1
ag53
aI31
aI0
ag173
aI22
aI3
ag13
aI113
aI1
aS'So, who else hates BrokeBack Mountain?..'
p263
aI40
aI4
ag12
aI41
aI11
ag74
aI26
aI3
ag52
aI37
aI0
ag29
aI68
aI3
aS'The Da Vinci Code was so awesome, I cannot even begin to comprehend nor explain the awesomeness of its hardcore, awesome power of awesomeness.....'
p264
aI146
aI5
ag179
aI71
aI0
ag125
aI30
aI4
ag152
aI40
aI2
ag85
aI60
aI38
ag71
aI80
aI3
ag19
aI44
aI3
ag173
aI22
aI3
ag38
aI44
aI3
ag22
aI132
aI11
ag88
aI46
aI4
aS"While we're on the topic, Harry Potter stinks."
p265
aI46
aI3
aS'i hate brokeback mountain.'
p266
aI26
aI0
ag109
aI57
aI5
ag70
aI47
aI1
ag24
aI112
aI5
ag116
aI51
aI3
aS'Critics are saying that The Da Vinci Code, due in theaters this weekend, stinks.'
p267
aI80
aI5
ag66
aI53
aI0
ag12
aI41
aI11
ag63
aI32
aI4
ag68
aI77
aI10
aS'He opened his mouth to dictate his reply about having Harry Potter suck his cock, only to be cut off by his mirror speaking up.'
p268
aI127
aI3
ag10
aI21
aI3
ag116
aI51
aI3
aS'I love Brokeback Mountain because it is a great story, great acting...'
p269
aI70
aI3
ag42
aI49
aI11
ag90
aI20
aI3
ag58
aI66
aI10
ag43
aI65
aI2
ag80
aI112
aI11
ag68
aI77
aI10
ag19
aI44
aI3
ag41
aI35
aI2
ag116
aI51
aI3
ag10
aI21
aI3
ag50
aI78
aI8
ag64
aI39
aI3
aS'Then again, I actually hated Harry Potter before I read it, and look at me now.'
p270
aI79
aI5
ag29
aI68
aI3
ag160
aI34
aI2
ag9
aI73
aI17
ag88
aI46
aI4
ag173
aI22
aI3
ag17
aI84
aI4
ag32
aI120
aI0
ag48
aI113
aI1
ag48
aI113
aI1
ag50
aI78
aI8
ag16
aI26
aI20
ag90
aI20
aI3
ag87
aI35
aI1
ag22
aI132
aI11
ag68
aI77
aI10
ag12
aI41
aI11
ag71
aI80
aI3
aS'None of friends are into Harry Potter so I would love to be part of a community that is dedicated to something I love.'
p271
aI118
aI5
ag152
aI40
aI2
aS'I used to love watching the show Mission Impossible so I do like the idea of the movie.'
p272
aI87
aI4
aS'I love Harry Potter!.'
p273
aI21
aI3
ag112
aI172
aI7
ag50
aI78
aI8
ag112
aI172
aI7
aS'I loved the first Mission Impossible movie.'
p274
aI43
aI3
ag90
aI20
aI3
ag39
aI101
aI7
ag35
aI78
aI5
ag125
aI30
aI4
ag51
aI32
aI0
ag121
aI67
aI0
ag136
aI57
aI5
ag160
aI34
aI2
ag39
aI101
aI7
ag89
aI49
aI1
ag67
aI27
aI3
ag10
aI21
aI3
ag70
aI47
aI1
aS'I think I hate Harry Potter..'
p275
aI29
aI4
ag70
aI47
aI1
aS'then I turn on the light and the radio and enjoy my Da Vinci Code.'
p276
aI66
aI4
aS'friday i stayed in & watched Mission Impossible 3 which is amazing by the way.'
p277
aI78
aI2
ag56
aI37
aI5
ag88
aI46
aI4
ag44
aI139
aI4
aS'The Harry Potter picture is awesome.'
p278
aI36
aI3
ag18
aI30
aI4
aS'Da Vinci Code is an awesome book..'
p279
aI34
aI3
aS'da vinci code the movie sucked.'
p280
aI31
aI0
ag13
aI113
aI1
ag35
aI78
aI5
ag31
aI204
aI4
ag152
aI40
aI2
ag125
aI30
aI4
ag80
aI112
aI11
ag38
aI44
aI3
ag20
aI27
aI5
ag24
aI112
aI5
ag72
aI131
aI5
aS'Da Vinci Code sucked but the story and ideas were very interesting...'
p281
aI69
aI3
ag112
aI172
aI7
aS'Brokeback Mountain sucked Ass..'
p282
aI31
aI3
aS'i am love brokeback mountain madly.'
p283
aI35
aI0
ag109
aI57
aI5
ag22
aI132
aI11
ag160
aI34
aI2
ag66
aI53
aI0
ag29
aI68
aI3
aS'Mission Impossible 3 was quite boring.'
p284
aI38
aI2
ag53
aI31
aI0
ag77
aI89
aI4
ag81
aI30
aI11
ag50
aI78
aI8
aS'lynn and jon at the theaters for da vinci code-other than that, EVERYONE AT THE LUAU, it was awesome..'
p285
aI102
aI17
ag16
aI26
aI20
ag77
aI89
aI4
ag173
aI22
aI3
ag109
aI57
aI5
ag35
aI78
aI5
ag152
aI40
aI2
aS'i like th mission impossible one...'
p286
aI35
aI0
ag152
aI40
aI2
ag85
aI60
aI38
ag112
aI172
aI7
ag38
aI44
aI3
ag49
aI92
aI3
ag14
aI38
aI3
ag133
aI29
aI3
aS'XD I also like Harry Potter, anime, manga, reading, food, movies, music, friends...'
p287
aI83
aI5
ag88
aI46
aI4
ag48
aI113
aI1
ag41
aI35
aI2
ag43
aI65
aI2
ag179
aI71
aI0
ag152
aI40
aI2
ag15
aI20
aI3
ag61
aI40
aI9
ag87
aI35
aI1
ag61
aI40
aI9
ag12
aI41
aI11
ag57
aI25
aI3
ag37
aI30
aI2
aS'very da vinci code slash amazing race.'
p288
aI38
aI0
aS'yea, i saw Mission Impossible 3 too, that was awesome!!'
p289
aI55
aI2
ag18
aI30
aI4
ag52
aI37
aI0
ag20
aI27
aI5
ag8
aI61
aI4
ag13
aI113
aI1
ag20
aI27
aI5
ag80
aI112
aI11
aS"Hogwarts hogwash: The Georgia board of education listens to a mother's campaign to rid those evil Harry Potter books from school libraries..."
p290
aI141
aI5
ag179
aI71
aI0
ag121
aI67
aI0
aS'Brokeback Mountain sucked..'
p291
aI27
aI2
ag110
aI48
aI3
ag90
aI20
aI3
ag121
aI67
aI0
ag50
aI78
aI8
ag15
aI20
aI3
ag38
aI44
aI3
ag37
aI30
aI2
ag38
aI44
aI3
ag142
aI47
aI3
ag85
aI60
aI38
ag11
aI62
aI3
aS'Da Vinci Code sucked, as expected.'
p292
aI34
aI3
ag20
aI27
aI5
aS'Harry Potter was so adorable, he had a scar and everything.: ) I love Harry Potter.'
p293
aI83
aI5
ag133
aI29
aI3
ag142
aI47
aI3
ag38
aI44
aI3
aS'I love hating America almost as much as I love supporting the Da Vinci Code.'
p294
aI76
aI6
ag109
aI57
aI5
ag12
aI41
aI11
aS'The problem with all of this, of course, is that Harry Potter sucks ass and is indicative of the overall decline of English-Speaking culture at the hands of predictability and pretty-packaging...: -).'
p295
aI200
aI5
aS'I loved the first Mission Impossible.'
p296
aI37
aI3
ag51
aI32
aI0
ag66
aI53
aI0
ag48
aI113
aI1
ag49
aI92
aI3
ag110
aI48
aI3
ag11
aI62
aI3
ag41
aI35
aI2
ag35
aI78
aI5
aS'i miss mission impossible.'
p297
aI26
aI0
ag31
aI204
aI4
ag22
aI132
aI11
ag14
aI38
aI3
ag63
aI32
aI4
ag125
aI30
aI4
ag12
aI41
aI11
ag173
aI22
aI3
ag29
aI68
aI3
aS'The complaints I\'ve seen about the " Vito-being-gay " plot twist, with facile comparsions to Brokeback Mountain are so stupid.'
p298
aI126
aI5
ag14
aI38
aI3
ag57
aI25
aI3
ag15
aI20
aI3
ag44
aI139
aI4
ag61
aI40
aI9
ag112
aI172
aI7
ag179
aI71
aI0
ag89
aI49
aI1
ag71
aI80
aI3
ag21
aI34
aI4
ag27
aI76
aI0
ag29
aI68
aI3
ag32
aI120
aI0
ag77
aI89
aI4
ag19
aI44
aI3
ag13
aI113
aI1
aS'I love Brokeback Mountain!'
p299
aI26
aI3
ag16
aI26
aI20
ag12
aI41
aI11
aS'Mission Impossible 2 was awesome, so 3 should be good.'
p300
aI54
aI2
ag179
aI71
aI0
ag116
aI51
aI3
ag51
aI32
aI0
aS"I HATE Harry Potter, but I'd so watch it if KAT-TUn starred in it!"
p301
aI66
aI13
ag50
aI78
aI8
ag152
aI40
aI2
ag87
aI35
aI1
ag15
aI20
aI3
ag42
aI49
aI11
ag35
aI78
aI5
ag12
aI41
aI11
ag64
aI39
aI3
ag24
aI112
aI5
ag57
aI25
aI3
ag168
aI22
aI0
ag11
aI62
aI3
ag66
aI53
aI0
aS'da vinci code sucked da vinci code sucks da vinci code sucks!.'
p302
aI62
aI0
aS'BROKEBACK MOUNTAIN WAS A BEAUTIFUL MOVIE..'
p303
aI42
aI35
ag43
aI65
aI2
ag22
aI132
aI11
ag29
aI68
aI3
aS'read " The Da Vinci Code " is awesome,. but " Angel and Demons " is even better if you wanna read Dan Brown\'s books..'
p304
aI117
aI8
aS'The Da Vinci Code is an * amazing * book, do not get me wrong.'
p305
aI62
aI4
ag173
aI22
aI3
ag63
aI32
aI4
ag142
aI47
aI3
ag61
aI40
aI9
ag168
aI22
aI0
ag44
aI139
aI4
ag15
aI20
aI3
ag125
aI30
aI4
aS"Quick update:..-Haven't smoked in over a week..-Haven't consumed meat in over a week..-Da Vinci Code sucked..-Love the new place..-Broke."
p306
aI137
aI8
ag32
aI120
aI0
ag110
aI48
aI3
aS'and i love reading da vinci code.....'
p307
aI37
aI0
ag87
aI35
aI1
ag12
aI41
aI11
ag15
aI20
aI3
aS'I LOVE BROKEBACK MOUNTAIN!!!'
p308
aI28
aI22
ag112
aI172
aI7
ag152
aI40
aI2
ag27
aI76
aI0
ag57
aI25
aI3
ag29
aI68
aI3
ag9
aI73
aI17
aS'and i thought mission impossible III was quite awesome..'
p309
aI56
aI3
aS'You know Brokeback Mountain was a stupid movie, because if it was about a guy and a girl, no one would give a shit about it..'
p310
aI125
aI3
aS"I suppose you could say that I hate Harry Potter because he's everything I'm not."
p311
aI81
aI5
ag71
aI80
aI3
ag41
aI35
aI2
ag29
aI68
aI3
ag86
aI22
aI3
aS'BURBANK, Calif. ( AP )-Brooke Shields says Tom Cruise has publicly apologized for his film career, including War of the Worlds and all of the atrocious Mission Impossible movies.'
p312
aI178
aI18
ag11
aI62
aI3
ag29
aI68
aI3
ag68
aI77
aI10
aS'hating the da vinci code, saying its sucky.'
p313
aI43
aI0
ag121
aI67
aI0
aS'mission impossible 3 is a pretty stinkin awesome movie, if i do say so myself...-ike..'
p314
aI86
aI0
ag15
aI20
aI3
ag121
aI67
aI0
aS'Now I hate Harry Potter, and when they said this I knew they were getting to me.'
p315
aI80
aI5
ag67
aI27
aI3
ag13
aI113
aI1
ag112
aI172
aI7
ag32
aI120
aI0
ag133
aI29
aI3
ag90
aI20
aI3
ag85
aI60
aI38
ag116
aI51
aI3
aS'I do have a job and college, but I love Harry Potter and I will try to sort as often as I can.'
p316
aI94
aI6
ag27
aI76
aI0
ag24
aI112
aI5
ag9
aI73
aI17
ag10
aI21
aI3
ag48
aI113
aI1
ag87
aI35
aI1
ag38
aI44
aI3
ag13
aI113
aI1
ag88
aI46
aI4
ag85
aI60
aI38
ag168
aI22
aI0
ag63
aI32
aI4
ag43
aI65
aI2
aS'Mission Impossible was a good unpredictable spy movie, if you like that sort of thing.'
p317
aI86
aI2
ag89
aI49
aI1
ag77
aI89
aI4
ag8
aI61
aI4
ag11
aI62
aI3
ag24
aI112
aI5
ag7
aI20
aI3
ag52
aI37
aI0
ag48
aI113
aI1
ag88
aI46
aI4
ag13
aI113
aI1
ag13
aI113
aI1
ag89
aI49
aI1
aS'Oh and mission impossible 3 was awesome.'
p318
aI40
aI1
ag11
aI62
aI3
ag109
aI57
aI5
ag87
aI35
aI1
aS'but i also hate brokeback mountain and am kind of glad that it lost.'
p319
aI68
aI0
aS'I fucking hate Harry Potter.'
p320
aI28
aI3
ag12
aI41
aI11
ag17
aI84
aI4
ag112
aI172
aI7
ag77
aI89
aI4
aS'Brokeback Mountain was a shitty movie.'
p321
aI38
aI2
aS'I got a hold of Kelsey and we went to Oceanwalk and saw the Da Vinci Code, which kinda sucked, then went and got really, REALLY bad food at Johnny Rockets.'
p322
aI155
aI14
ag67
aI27
aI3
ag12
aI41
aI11
ag80
aI112
aI11
ag42
aI49
aI11
ag43
aI65
aI2
ag63
aI32
aI4
ag10
aI21
aI3
aS'Da Vinci Code is of course a awesome book, but you will figure that out on page 286.'
p323
aI84
aI3
ag77
aI89
aI4
ag17
aI84
aI4
ag63
aI32
aI4
ag116
aI51
aI3
aS'We saw Mission Impossible 3, which was rather awesome.'
p324
aI54
aI3
ag90
aI20
aI3
ag39
aI101
aI7
ag64
aI39
aI3
ag67
aI27
aI3
ag136
aI57
aI5
ag116
aI51
aI3
ag58
aI66
aI10
aS'I like Harry Potter..'
p325
aI21
aI3
ag179
aI71
aI0
ag14
aI38
aI3
ag18
aI30
aI4
ag32
aI120
aI0
ag116
aI51
aI3
aS'Harry Potter still sucks, though.'
p326
aI33
aI2
ag87
aI35
aI1
aS" Mission Impossible 3  was awesome and if you didn't see it because of some problem you have with Tom Cruise then stop pretending as though you actually like moives."
p327
aI165
aI4
aS'I miss the Harry Potter Hookup.'
p328
aI31
aI4
ag56
aI37
aI5
ag72
aI131
aI5
ag42
aI49
aI11
ag89
aI49
aI1
aS'Why I love Brokeback Mountain.'
p329
aI30
aI4
ag44
aI139
aI4
ag21
aI34
aI4
aS'I miss Harry Potter and Japenese food..'
p330
aI39
aI4
ag87
aI35
aI1
ag38
aI44
aI3
aS'hey I heard da vinci code sucks butt.'
p331
aI37
aI1
ag38
aI44
aI3
aS'I love the shoes and the Harry Potter picture.'
p332
aI46
aI3
ag13
aI113
aI1
ag74
aI26
aI3
ag29
aI68
aI3
ag8
aI61
aI4
ag160
aI34
aI2
aS'Stupid brokeback mountain reference i did.'
p333
aI42
aI1
ag13
aI113
aI1
aS'mission impossible III was awesome...'
p334
aI37
aI3
ag80
aI112
aI11
ag50
aI78
aI8
ag110
aI48
aI3
ag85
aI60
aI38
ag109
aI57
aI5
ag19
aI44
aI3
aS"I'll let y'all know if The Da Vinci Code sucks or not..."
p335
aI56
aI5
ag88
aI46
aI4
ag18
aI30
aI4
ag32
aI120
aI0
ag173
aI22
aI3
aS'Da Vinci Code kinda sucks second time around..'
p336
aI46
aI3
ag179
aI71
aI0
ag125
aI30
aI4
ag14
aI38
aI3
ag160
aI34
aI2
ag21
aI34
aI4
aS'omg i love the da vinci code that is such an awesome book!'
p337
aI58
aI0
ag87
aI35
aI1
ag74
aI26
aI3
ag88
aI46
aI4
ag74
aI26
aI3
ag39
aI101
aI7
ag57
aI25
aI3
ag12
aI41
aI11
ag8
aI61
aI4
ag125
aI30
aI4
ag41
aI35
aI2
aS'This is undoubtedly a big deal as I do not purchase movies a la DVD. The only ones I own are series like Harry Potter, Narnia, and Disney movies.'
p338
aI145
aI11
ag24
aI112
aI5
ag18
aI30
aI4
ag22
aI132
aI11
ag49
aI92
aI3
aS'brokeback mountain is awesome.'
p339
aI30
aI0
ag168
aI22
aI0
ag41
aI35
aI2
ag21
aI34
aI4
ag16
aI26
aI20
ag68
aI77
aI10
ag18
aI30
aI4
aS'I love brokeback mountain.'
p340
aI26
aI1
ag7
aI20
aI3
ag42
aI49
aI11
ag66
aI53
aI0
ag85
aI60
aI38
aS'i like Mission Impossible...'
p341
aI28
aI2
ag44
aI139
aI4
ag125
aI30
aI4
ag43
aI65
aI2
ag136
aI57
aI5
ag27
aI76
aI0
ag24
aI112
aI5
ag38
aI44
aI3
ag17
aI84
aI4
ag38
aI44
aI3
ag53
aI31
aI0
ag13
aI113
aI1
ag16
aI26
aI20
aS'BECAUSE DA VINCI CODE SUCKED!!'
p342
aI30
aI24
ag61
aI40
aI9
aS'I loved Brokeback mountain but then again i love gays lol.'
p343
aI58
aI2
aS'can i also say that brokeback mountain is pretty much the most depressing movie i have ever seen..'
p344
aI98
aI0
ag29
aI68
aI3
ag27
aI76
aI0
ag22
aI132
aI11
aS'DA VINCI CODE SUCKS ASS.'
p345
aI24
aI19
ag168
aI22
aI0
ag109
aI57
aI5
aS"this was the first clive cussler i've ever read, but even books like Relic, and Da Vinci code were more plausible than this."
p346
aI124
aI3
aS'which made me realize how much I love Harry Potter..'
p347
aI52
aI3
ag39
aI101
aI7
ag13
aI113
aI1
ag27
aI76
aI0
ag70
aI47
aI1
ag37
aI30
aI2
ag19
aI44
aI3
ag16
aI26
aI20
ag35
aI78
aI5
ag71
aI80
aI3
ag18
aI30
aI4
ag11
aI62
aI3
ag11
aI62
aI3
ag67
aI27
aI3
ag179
aI71
aI0
ag53
aI31
aI0
aS'Harry Potter sucks.....'
p348
aI23
aI2
ag74
aI26
aI3
ag11
aI62
aI3
ag7
aI20
aI3
aS'Yeah the Da Vinci code is awesome....'
p349
aI37
aI3
ag109
aI57
aI5
aS'i LOVE the da vinci code!'
p350
aI25
aI4
ag133
aI29
aI3
ag52
aI37
aI0
ag32
aI120
aI0
aS'I LOVE Brokeback Mountain, but that is such a silly PC choice for best kiss.'
p351
aI76
aI9
ag88
aI46
aI4
ag22
aI132
aI11
ag12
aI41
aI11
aS'I hated The Da Vinci Code.'
p352
aI26
aI5
ag27
aI76
aI0
ag20
aI27
aI5
ag109
aI57
aI5
ag17
aI84
aI4
ag50
aI78
aI8
ag16
aI26
aI20
ag21
aI34
aI4
ag56
aI37
aI5
aS'Alright so Mission Impossible 3 is awesome!'
p353
aI43
aI3
ag71
aI80
aI3
ag133
aI29
aI3
ag142
aI47
aI3
ag226
aI25
aI4
ag31
aI204
aI4
ag39
aI101
aI7
aS'I LOVE Brokeback Mountain!!'
p354
aI27
aI7
ag74
aI26
aI3
aS'Mission Impossible Three was awesome!'
p355
aI37
aI3
ag15
aI20
aI3
ag63
aI32
aI4
ag22
aI132
aI11
ag22
aI132
aI11
ag90
aI20
aI3
ag64
aI39
aI3
ag24
aI112
aI5
ag67
aI27
aI3
ag12
aI41
aI11
ag52
aI37
aI0
ag7
aI20
aI3
aS'Mission impossible 3 was fucking awesome.'
p356
aI41
aI1
ag17
aI84
aI4
ag13
aI113
aI1
ag87
aI35
aI1
ag114
aI26
aI0
ag168
aI22
aI0
ag29
aI68
aI3
ag80
aI112
aI11
ag10
aI21
aI3
ag71
aI80
aI3
ag52
aI37
aI0
aS"Harry Potter sucks, it's just that simple."
p357
aI42
aI2
aS'Spoke with Mrs. Cowan briefly about a Harry Potter independent study, which would be incredibly awesome, but which I am also far, far too lazy to take my last semester in college...'
p358
aI181
aI6
ag17
aI84
aI4
aS'The Da Vinci Code is like one of the AWESOMEST books!!!'
p359
aI55
aI13
ag9
aI73
aI17
ag58
aI66
aI10
ag39
aI101
aI7
ag70
aI47
aI1
ag39
aI101
aI7
ag31
aI204
aI4
ag9
aI73
aI17
ag15
aI20
aI3
ag168
aI22
aI0
ag24
aI112
aI5
ag133
aI29
aI3
ag8
aI61
aI4
aS'I hate the Da Vinci Code, but I may see the movie for Audrey Tautou...'
p360
aI70
aI7
ag7
aI20
aI3
ag43
aI65
aI2
ag53
aI31
aI0
ag13
aI113
aI1
ag226
aI25
aI4
ag66
aI53
aI0
ag53
aI31
aI0
ag133
aI29
aI3
ag11
aI62
aI3
aS'Now, I am the first person to say that The Da Vinci Code sucks, but hello, it \xe2\x80\x99 s a novel!'
p361
aI92
aI6
ag42
aI49
aI11
ag32
aI120
aI0
ag61
aI40
aI9
ag80
aI112
aI11
ag112
aI172
aI7
aS'By the way I LOVE the movie Mission Impossible 3!'
p362
aI49
aI8
aS'Brokeback Mountain sucked.....'
p363
aI30
aI2
ag31
aI204
aI4
ag14
aI38
aI3
ag70
aI47
aI1
ag51
aI32
aI0
ag41
aI35
aI2
ag16
aI26
aI20
ag41
aI35
aI2
ag17
aI84
aI4
ag35
aI78
aI5
ag19
aI44
aI3
aS'As sad as it may be that I am now dating my sister, I enjoyed our time together and absolutely loved The Da Vinci Code.'
p364
aI119
aI7
ag13
aI113
aI1
ag160
aI34
aI2
ag22
aI132
aI11
ag112
aI172
aI7
ag109
aI57
aI5
ag15
aI20
aI3
aS'Still, none of that had felt nearly as exquisite as having Harry Potter sucking his cock...'
p365
aI91
aI3
aS'Brokeback Mountain-hard to ignore beautiful photography.'
p366
aI56
aI2
ag9
aI73
aI17
ag110
aI48
aI3
ag15
aI20
aI3
ag66
aI53
aI0
ag72
aI131
aI5
ag77
aI89
aI4
aS'Yeah, Mission Impossible 3 was awesome!!!..'
p367
aI43
aI3
ag35
aI78
aI5
ag51
aI32
aI0
ag52
aI37
aI0
aS'mission impossible 3 sucked balls.'
p368
aI34
aI0
ag58
aI66
aI10
ag71
aI80
aI3
aS'* g * But, much as I love the Harry Potter movies, the books are better...'
p369
aI74
aI4
ag53
aI31
aI0
ag70
aI47
aI1
ag32
aI120
aI0
ag142
aI47
aI3
ag14
aI38
aI3
ag7
aI20
aI3
aS'I am a Christian and I absolutely HATE the Da Vinci Code.'
p370
aI57
aI10
ag31
aI204
aI4
ag77
aI89
aI4
aS'sunday before that we went and saw mission impossible 3 so that was awesome.'
p371
aI76
aI0
ag32
aI120
aI0
ag72
aI131
aI5
ag41
aI35
aI2
ag15
aI20
aI3
ag57
aI25
aI3
ag13
aI113
aI1
ag71
aI80
aI3
ag38
aI44
aI3
ag42
aI49
aI11
ag11
aI62
aI3
ag41
aI35
aI2
ag89
aI49
aI1
ag39
aI101
aI7
ag57
aI25
aI3
ag74
aI26
aI3
ag10
aI21
aI3
ag125
aI30
aI4
ag16
aI26
aI20
aS'I love Harry Potter and I love making friends.'
p372
aI46
aI4
ag17
aI84
aI4
ag67
aI27
aI3
ag168
aI22
aI0
ag57
aI25
aI3
ag16
aI26
aI20
aS'Da Vinci Code-that was awesome!..'
p373
aI33
aI3
ag89
aI49
aI1
aS'Mission Impossible 3 is actually pretty awesome as far as mindless action movies go.'
p374
aI84
aI2
ag51
aI32
aI0
ag222
aI22
aI3
ag12
aI41
aI11
aS'Beyond the Da Vinci Code is a beautiful tome -- unauthorized, of course -- that deals with the novel and what inspired it.'
p375
aI122
aI4
ag21
aI34
aI4
ag42
aI49
aI11
ag9
aI73
aI17
ag17
aI84
aI4
ag80
aI112
aI11
ag109
aI57
aI5
aS'mission impossible III is awesome!'
p376
aI34
aI3
ag11
aI62
aI3
ag50
aI78
aI8
aS'Crystal was all, " Oh, my God, I hate Harry Potter and I\'m really not into this scene.'
p377
aI86
aI7
ag41
aI35
aI2
ag160
aI34
aI2
ag21
aI34
aI4
ag168
aI22
aI0
ag13
aI113
aI1
ag72
aI131
aI5
ag80
aI112
aI11
ag52
aI37
aI0
ag38
aI44
aI3
ag61
aI40
aI9
ag87
aI35
aI1
ag29
aI68
aI3
aS'I loved Brokeback Mountain, but I always wondered what would have happened if Ennis decided to spend the rest of his life with Jack...'
p378
aI134
aI6
ag15
aI20
aI3
ag50
aI78
aI8
ag66
aI53
aI0
ag68
aI77
aI10
ag109
aI57
aI5
ag37
aI30
aI2
ag52
aI37
aI0
ag152
aI40
aI2
ag39
aI101
aI7
aS'i liked the Da Vinci Code a lot.'
p379
aI32
aI3
ag56
aI37
aI5
ag77
aI89
aI4
ag58
aI66
aI10
ag10
aI21
aI3
aS'I blame Mission Impossible for some of my chunnel fears -- but I think I would be scared regardless..'
p380
aI101
aI5
ag50
aI78
aI8
ag13
aI113
aI1
ag20
aI27
aI5
ag10
aI21
aI3
aS'I love the Mission Impossible movies!!'
p381
aI38
aI3
ag38
aI44
aI3
ag21
aI34
aI4
ag136
aI57
aI5
ag64
aI39
aI3
aS'lol i love brokeback mountain.'
p382
aI30
aI0
ag61
aI40
aI9
ag7
aI20
aI3
aS'Deciding how I want the 7th Harry Potter to go -..'
p383
aI50
aI4
ag109
aI57
aI5
ag31
aI204
aI4
ag35
aI78
aI5
aS'oh and i loved the da vinci code.'
p384
aI33
aI0
ag27
aI76
aI0
aS'Mission Impossible 2 sucked hardcore.'
p385
aI37
aI2
ag85
aI60
aI38
aS'on a side note Mission Impossible 3 was AWESOME!'
p386
aI48
aI9
aS'Watched Mission Impossible III with Baby, it was pretty awesome!'
p387
aI64
aI7
ag77
aI89
aI4
ag74
aI26
aI3
ag64
aI39
aI3
ag179
aI71
aI0
ag43
aI65
aI2
ag10
aI21
aI3
ag57
aI25
aI3
ag50
aI78
aI8
ag35
aI78
aI5
aS"While I hate Harry Potter with nearly every fiber of my being, I don't think the book is inherently evil."
p388
aI105
aI5
ag133
aI29
aI3
ag160
aI34
aI2
ag74
aI26
aI3
aS'Mission Impossible is so Boring.'
p389
aI32
aI3
ag29
aI68
aI3
ag74
aI26
aI3
ag160
aI34
aI2
ag19
aI44
aI3
ag110
aI48
aI3
ag37
aI30
aI2
ag41
aI35
aI2
ag109
aI57
aI5
ag116
aI51
aI3
ag9
aI73
aI17
ag142
aI47
aI3
ag74
aI26
aI3
ag42
aI49
aI11
ag63
aI32
aI4
ag168
aI22
aI0
ag63
aI32
aI4
ag15
aI20
aI3
ag42
aI49
aI11
ag89
aI49
aI1
aS'and I do enjoy reading the Harry Potter series...'
p390
aI49
aI3
ag13
aI113
aI1
ag27
aI76
aI0
ag50
aI78
aI8
ag12
aI41
aI11
ag56
aI37
aI5
aS'I really enjoyed the Da Vinci Code but thought I would be disappointed in the other books & # 8230;.'
p391
aI100
aI5
ag41
aI35
aI2
aS'Da Vinci Code SUCKED ASS!!!'
p392
aI27
aI12
ag52
aI37
aI0
ag121
aI67
aI0
ag43
aI65
aI2
ag109
aI57
aI5
ag63
aI32
aI4
ag35
aI78
aI5
ag116
aI51
aI3
ag24
aI112
aI5
aS'went to see Mission Impossible 3 which is AWESOME.'
p393
aI50
aI9
ag13
aI113
aI1
aS'i thought da vinci code was great, same with kite runner.'
p394
aI57
aI0
ag24
aI112
aI5
ag44
aI139
aI4
ag87
aI35
aI1
ag136
aI57
aI5
ag68
aI77
aI10
aS'TO NIGHT:: THE DA VINCI CODE AND A BEAUTIFUL MIND...'
p395
aI52
aI38
ag14
aI38
aI3
ag71
aI80
aI3
ag133
aI29
aI3
ag66
aI53
aI0
ag136
aI57
aI5
aS'I loved it a lot, although I loved the other Mission Impossible movies as well:)'
p396
aI80
aI4
ag85
aI60
aI38
aS'the da vinci code was an awesome book, i just finished it.'
p397
aI58
aI0
ag109
aI57
aI5
ag88
aI46
aI4
aS'Saw Mission Impossible 3 it was awesome and I hate tom cruise cuz he is an asshole but it was still great.'
p398
aI106
aI4
aS'I HATE Harry Potter.'
p399
aI20
aI7
ag87
aI35
aI1
aS'i loved the da vinci code.'
p400
aI26
aI0
ag64
aI39
aI3
ag87
aI35
aI1
ag173
aI22
aI3
ag58
aI66
aI10
aS'I love the Mission Impossible movies but this guy is really wacked.'
p401
aI67
aI3
ag41
aI35
aI2
ag74
aI26
aI3
ag64
aI39
aI3
ag74
aI26
aI3
ag44
aI139
aI4
ag57
aI25
aI3
ag136
aI57
aI5
ag87
aI35
aI1
ag41
aI35
aI2
aS'The Da Vinci Code is an awesome book, I just finshed reading it.'
p402
aI64
aI5
ag32
aI120
aI0
ag7
aI20
aI3
ag152
aI40
aI2
ag7
aI20
aI3
ag32
aI120
aI0
ag29
aI68
aI3
ag68
aI77
aI10
ag14
aI38
aI3
ag15
aI20
aI3
ag68
aI77
aI10
ag21
aI34
aI4
ag56
aI37
aI5
ag88
aI46
aI4
ag85
aI60
aI38
aS"I'd just like to say that Brokeback Mountain is a very depressing movie."
p403
aI72
aI3
ag88
aI46
aI4
aS'I really like The Da Vinci Code.'
p404
aI32
aI5
ag116
aI51
aI3
ag80
aI112
aI11
ag72
aI131
aI5
ag57
aI25
aI3
ag8
aI61
aI4
ag42
aI49
aI11
ag90
aI20
aI3
ag63
aI32
aI4
ag72
aI131
aI5
ag85
aI60
aI38
ag38
aI44
aI3
ag41
aI35
aI2
ag58
aI66
aI10
ag15
aI20
aI3
ag71
aI80
aI3
ag71
aI80
aI3
aS'I thought Brokeback Mountain was a terrible movie.'
p405
aI50
aI3
ag27
aI76
aI0
ag31
aI204
aI4
ag58
aI66
aI10
ag61
aI40
aI9
ag80
aI112
aI11
ag32
aI120
aI0
ag43
aI65
aI2
ag42
aI49
aI11
aS'Harry Potter = Gorgeous!.'
p406
aI25
aI3
ag57
aI25
aI3
ag85
aI60
aI38
ag112
aI172
aI7
ag142
aI47
aI3
ag37
aI30
aI2
ag27
aI76
aI0
ag43
aI65
aI2
ag10
aI21
aI3
ag16
aI26
aI20
ag44
aI139
aI4
ag51
aI32
aI0
ag121
aI67
aI0
ag63
aI32
aI4
ag179
aI71
aI0
ag51
aI32
aI0
ag72
aI131
aI5
ag32
aI120
aI0
ag88
aI46
aI4
ag58
aI66
aI10
aS"no, I hope this doesn't end up like Brokeback Mountain."
p407
aI55
aI3
aS'MIssion Impossible was soo so good.'
p408
aI35
aI3
ag32
aI120
aI0
aS'I LOVE BROKEBACK MOUNTAIN!'
p409
aI26
aI22
ag44
aI139
aI4
ag58
aI66
aI10
ag37
aI30
aI2
ag72
aI131
aI5
ag49
aI92
aI3
aS'I like Harry Potter.'
p410
aI20
aI3
ag10
aI21
aI3
ag24
aI112
aI5
aS'I LOVE THE DA VINCI CODE!!..'
p411
aI28
aI19
aS"I was thinking we should have a gay cowboy party in honor of Val's starring performance in Titus.: ) And because I love Brokeback Mountain.."
p412
aI140
aI7
ag136
aI57
aI5
ag12
aI41
aI11
ag50
aI78
aI8
ag133
aI29
aI3
ag41
aI35
aI2
ag67
aI27
aI3
ag32
aI120
aI0
ag18
aI30
aI4
ag136
aI57
aI5
ag38
aI44
aI3
ag44
aI139
aI4
aS'So have I mentioned how much I love Brokeback Mountain yet?!'
p413
aI60
aI5
ag52
aI37
aI0
ag37
aI30
aI2
ag51
aI32
aI0
ag18
aI30
aI4
ag160
aI34
aI2
ag32
aI120
aI0
ag63
aI32
aI4
ag58
aI66
aI10
aS'Mission Impossible 2 is a dumb movie.'
p414
aI37
aI2
ag15
aI20
aI3
ag31
aI204
aI4
aS'I LOVE THE MISSiON IMPOSSIBLE THEME!!'
p415
aI37
aI29
ag8
aI61
aI4
ag57
aI25
aI3
aS'so, we got tickets for mission impossible 3, which turned out to be awesome.'
p416
aI76
aI0
ag7
aI20
aI3
ag16
aI26
aI20
ag42
aI49
aI11
aS'that and the da vinci code is awesome so far.'
p417
aI45
aI0
ag38
aI44
aI3
ag74
aI26
aI3
ag56
aI37
aI5
aS'The Da Vinci Code was a really good movie.'
p418
aI42
aI4
ag35
aI78
aI5
ag29
aI68
aI3
aS'BROKEBACK MOUNTAIN IS HORRIBLE.'
p419
aI31
aI27
aS"One of the main reasons I've always loved the Harry Potter fandom is because I felt like it was a place where everyone could belong."
p420
aI132
aI5
ag365
aI91
aI3
ag42
aI49
aI11
ag70
aI47
aI1
ag17
aI84
aI4
ag39
aI101
aI7
ag51
aI32
aI0
ag90
aI20
aI3
aS'Friday-Harry Potter Feast = AMAZING!'
p421
aI36
aI11
ag89
aI49
aI1
ag44
aI139
aI4
ag41
aI35
aI2
aS'why may you ask well I love Mission Impossible stories.'
p422
aI55
aI3
ag110
aI48
aI3
aS'I think the movie " Brokeback Mountain " was stupid and overexagerated...'
p423
aI73
aI3
aS'FYI-Mission Impossible 3 is awesome..'
p424
aI37
aI5
ag56
aI37
aI5
aS'I LOVED BROKEBACK MOUNTAIN!..'
p425
aI29
aI23
ag80
aI112
aI11
ag18
aI30
aI4
ag61
aI40
aI9
aS'Mission Impossible 3 was pretty awesome at least i thought so.'
p426
aI62
aI2
aS'Harry Potter and the Veil of Darkness by Oceans Phoenix Word total 517,648 and counting. ( 6th year fic, actually looks fairly interesting.'
p427
aI139
aI7
ag110
aI48
aI3
aS'mission impossible was awesome!'
p428
aI31
aI0
aS'Da vinci code is an awesome book.'
p429
aI33
aI1
ag10
aI21
aI3
ag110
aI48
aI3
ag63
aI32
aI4
ag142
aI47
aI3
aS'I saw both Da Vinci Code and X-Men 3 The Last Stand on the day they came out, and the one that got me talking to most was X-Men, but Da Vinci Code was awesome too.'
p430
aI163
aI14
ag44
aI139
aI4
ag44
aI139
aI4
ag168
aI22
aI0
ag53
aI31
aI0
ag58
aI66
aI10
ag125
aI30
aI4
ag109
aI57
aI5
ag19
aI44
aI3
ag121
aI67
aI0
ag173
aI22
aI3
ag10
aI21
aI3
ag173
aI22
aI3
aS'da vinci code is awesome..'
p431
aI26
aI0
ag14
aI38
aI3
ag406
aI25
aI3
ag57
aI25
aI3
ag70
aI47
aI1
ag116
aI51
aI3
ag17
aI84
aI4
aS'I just have to say that Brokeback Mountain, while visually incredible and extremely well directed, was a crappy movie.'
p432
aI118
aI3
aS'yeah i know the two movies are of different genres but personally i like brokeback mountain better...'
p433
aI101
aI0
ag24
aI112
aI5
ag37
aI30
aI2
ag18
aI30
aI4
ag88
aI46
aI4
ag8
aI61
aI4
aS'I think this bolsters my arguments that both England and the Da Vinci Code sucks...'
p434
aI83
aI5
aS'the da vinci code sucked...'
p435
aI27
aI0
aS'the da vinci code sucks majorly....'
p436
aI35
aI0
ag66
aI53
aI0
ag52
aI37
aI0
ag87
aI35
aI1
ag74
aI26
aI3
ag37
aI30
aI2
ag116
aI51
aI3
ag112
aI172
aI7
ag32
aI120
aI0
ag116
aI51
aI3
ag51
aI32
aI0
ag80
aI112
aI11
ag17
aI84
aI4
ag58
aI66
aI10
ag70
aI47
aI1
ag64
aI39
aI3
aS'Love the Da Vinci Code!('
p437
aI24
aI4
ag173
aI22
aI3
ag11
aI62
aI3
ag50
aI78
aI8
ag152
aI40
aI2
ag68
aI77
aI10
ag58
aI66
aI10
ag125
aI30
aI4
ag41
aI35
aI2
ag66
aI53
aI0
aS'I love politics and Harry Potter...'
p438
aI35
aI3
aS'I love Brokeback Mountain...'
p439
aI28
aI3
ag31
aI204
aI4
aS'Mission Impossible 3 looks AWESOME...'
p440
aI37
aI9
ag160
aI34
aI2
aS'Harry Potter and Titanic suck.'
p441
aI30
aI3
ag58
aI66
aI10
ag18
aI30
aI4
ag39
aI101
aI7
ag116
aI51
aI3
ag24
aI112
aI5
ag133
aI29
aI3
ag168
aI22
aI0
ag8
aI61
aI4
ag49
aI92
aI3
ag12
aI41
aI11
ag9
aI73
aI17
aS'Everyone knows Brokeback Mountain is going to win all because of the stupid gay cowboys.'
p442
aI88
aI3
ag57
aI25
aI3
ag142
aI47
aI3
ag10
aI21
aI3
ag136
aI57
aI5
ag77
aI89
aI4
ag21
aI34
aI4
ag49
aI92
aI3
aS'I forgot how much I hated Da Vinci Code.'
p443
aI40
aI5
ag42
aI49
aI11
ag29
aI68
aI3
ag52
aI37
aI0
ag43
aI65
aI2
ag80
aI112
aI11
ag116
aI51
aI3
ag15
aI20
aI3
ag179
aI71
aI0
ag64
aI39
aI3
ag71
aI80
aI3
ag63
aI32
aI4
ag48
aI113
aI1
ag74
aI26
aI3
ag27
aI76
aI0
ag14
aI38
aI3
aS'i love when brokeback mountain won at the critics choice awards they played its so easy to fall in love....'
p444
aI107
aI0
ag16
aI26
aI20
ag88
aI46
aI4
ag18
aI30
aI4
ag18
aI30
aI4
ag160
aI34
aI2
ag15
aI20
aI3
ag50
aI78
aI8
ag142
aI47
aI3
aS'Brokeback mountain sucks balls....'
p445
aI34
aI1
ag11
aI62
aI3
ag61
aI40
aI9
ag24
aI112
aI5
ag18
aI30
aI4
ag70
aI47
aI1
aS'Back in Melbourne, Mom and I went to see Da Vinci Code, which was totally awesome, but they left things out!'
p446
aI108
aI7
ag70
aI47
aI1
ag10
aI21
aI3
aS'I absolutely LOVE Harry Potter, as you can tell already.'
p447
aI56
aI7
ag22
aI132
aI11
ag43
aI65
aI2
ag19
aI44
aI3
ag90
aI20
aI3
ag32
aI120
aI0
ag140
aI103
aI8
ag16
aI26
aI20
ag80
aI112
aI11
ag66
aI53
aI0
aS'Also, Da Vinci Code is SUCK!!!!!!!!'
p448
aI35
aI8
aS'And that Harry Potter sucks because he rides on a broom.'
p449
aI56
aI3
ag112
aI172
aI7
ag35
aI78
aI5
ag20
aI27
aI5
ag7
aI20
aI3
ag116
aI51
aI3
ag42
aI49
aI11
aS'I enjoyed Brokeback Mountain-watched it twice.'
p450
aI46
aI3
ag74
aI26
aI3
aS'hahash i love da vinci code tooo!!'
p451
aI34
aI0
ag71
aI80
aI3
ag12
aI41
aI11
ag142
aI47
aI3
ag15
aI20
aI3
ag39
aI101
aI7
ag125
aI30
aI4
ag50
aI78
aI8
ag176
aI73
aI4
ag57
aI25
aI3
ag22
aI132
aI11
ag85
aI60
aI38
aS'I loved the first Mission Impossible, especially the scene in the vault.'
p452
aI72
aI3
aS'Went to see The Da Vinci Code, which sucked even worse than the book...'
p453
aI71
aI5
ag51
aI32
aI0
ag173
aI22
aI3
ag61
aI40
aI9
ag88
aI46
aI4
ag18
aI30
aI4
ag52
aI37
aI0
ag16
aI26
aI20
ag121
aI67
aI0
ag168
aI22
aI0
ag121
aI67
aI0
ag66
aI53
aI0
aS"That's why I love brokeback mountain, apart from Ang Lee.."
p454
aI58
aI4
aS'The Da Vinci Code [ movie ] sucked!..'
p455
aI37
aI4
ag14
aI38
aI3
ag168
aI22
aI0
ag64
aI39
aI3
ag71
aI80
aI3
aS'I thought the Da Vinci Code was a pretty good book.'
p456
aI51
aI4
ag67
aI27
aI3
ag121
aI67
aI0
ag63
aI32
aI4
ag110
aI48
aI3
ag10
aI21
aI3
aS'And I like BROKEBACK MOUNTAIN.'
p457
aI30
aI19
ag21
aI34
aI4
ag56
aI37
aI5
ag20
aI27
aI5
ag13
aI113
aI1
ag173
aI22
aI3
ag51
aI32
aI0
aS'brokeback mountain was pretty awesome.'
p458
aI38
aI0
aS'brokeback mountain did suck, and it was way too long.'
p459
aI53
aI0
aS'The Da Vinci Code book is just awesome.'
p460
aI39
aI4
aS'I loved the Da Vinci Code, both the book and the movie.'
p461
aI55
aI4
ag110
aI48
aI3
ag13
aI113
aI1
aS'Mission Impossible III, and it was awesome!'
p462
aI43
aI5
aS'Mission impossible was pretty cool, though I want you all to experience it at a camp setting which is ten times better with all the land & places to hide.'
p463
aI154
aI2
aS'After the god-awful \xe2\x80\x9c Mission Impossible 2 \xe2\x80\x9d from John Woo laid a major egg.'
p464
aI80
aI5
ag50
aI78
aI8
ag61
aI40
aI9
aS'i love gay boys but i think brokeback mountain sucked..'
p465
aI55
aI0
ag19
aI44
aI3
ag68
aI77
aI10
ag51
aI32
aI0
ag110
aI48
aI3
ag39
aI101
aI7
aS'i love mission impossible 1:'
p466
aI28
aI0
ag10
aI21
aI3
aS'The Da Vinci Code sucks..'
p467
aI25
aI4
ag71
aI80
aI3
ag20
aI27
aI5
ag50
aI78
aI8
ag16
aI26
aI20
aS"I used to hate Harry Potter, and now I'm a Potterholic.."
p468
aI56
aI5
ag8
aI61
aI4
ag168
aI22
aI0
ag66
aI53
aI0
ag121
aI67
aI0
ag11
aI62
aI3
ag48
aI113
aI1
ag8
aI61
aI4
aS"Okay, so y'all know me, and you know that I love Harry Potter."
p469
aI62
aI4
ag74
aI26
aI3
ag31
aI204
aI4
ag15
aI20
aI3
ag87
aI35
aI1
ag87
aI35
aI1
ag85
aI60
aI38
ag66
aI53
aI0
aS'about how much i hate the da vinci code.'
p470
aI40
aI0
ag142
aI47
aI3
ag136
aI57
aI5
aS'i love brokeback mountain.'
p471
aI26
aI0
ag57
aI25
aI3
ag53
aI31
aI0
ag43
aI65
aI2
ag15
aI20
aI3
ag136
aI57
aI5
ag133
aI29
aI3
ag152
aI40
aI2
ag64
aI39
aI3
ag80
aI112
aI11
aS'I loved Brokeback Mountain and will check out the short stories one of these days..'
p472
aI83
aI3
aS'saw Mission Impossible III which was awesome!!'
p473
aI46
aI5
ag179
aI71
aI0
ag27
aI76
aI0
ag42
aI49
aI11
ag53
aI31
aI0
ag12
aI41
aI11
ag67
aI27
aI3
ag70
aI47
aI1
ag20
aI27
aI5
ag17
aI84
aI4
ag142
aI47
aI3
ag133
aI29
aI3
ag142
aI47
aI3
ag31
aI204
aI4
ag133
aI29
aI3
ag10
aI21
aI3
ag74
aI26
aI3
aS'Boycott Mission Impossible-Tom Cruise is evil.: -(.....'
p474
aI55
aI5
ag15
aI20
aI3
aS'I miss ripping acoustic music and the Da Vinci Code...'
p475
aI54
aI4
aS'I read " Angels & Demons " first and am now onto " The Da Vinci Code " which so far is awesome.'
p476
aI95
aI7
aS"What I'd like to see is some Mission Impossible stuff, maybe throw them in jail and have them break out in 3 minutes."
p477
aI117
aI4
ag24
aI112
aI5
aS'No matter how much I love Brokeback Mountain, Crash definitely deserved the Oscar as best movie this year.'
p478
aI106
aI6
ag133
aI29
aI3
ag24
aI112
aI5
aS'Brokeback Mountain sucked...'
p479
aI28
aI2
ag168
aI22
aI0
ag15
aI20
aI3
ag68
aI77
aI10
aS'Mission Impossible 2 was a horrible film that made me cringe whenever I think about it, so horrible it was that I lost respect for John Woo('
p480
aI140
aI6
ag64
aI39
aI3
ag39
aI101
aI7
aS'PS da Vinci code is an awesome movie!.'
p481
aI38
aI3
ag68
aI77
aI10
ag9
aI73
aI17
ag29
aI68
aI3
ag49
aI92
aI3
ag10
aI21
aI3
aS'da vinci code, you suck..'
p482
aI25
aI0
ag15
aI20
aI3
ag15
aI20
aI3
ag49
aI92
aI3
ag50
aI78
aI8
ag41
aI35
aI2
aS'The Da Vinci Code is an awesome book.'
p483
aI37
aI4
ag66
aI53
aI0
ag125
aI30
aI4
ag116
aI51
aI3
ag52
aI37
aI0
aS'Loved the Mission Impossible quip and the fact that V made the Tom Cruise joke, they never get old to me, TC is such a freak.'
p484
aI125
aI8
ag179
aI71
aI0
ag20
aI27
aI5
ag49
aI92
aI3
ag112
aI172
aI7
ag72
aI131
aI5
ag19
aI44
aI3
ag68
aI77
aI10
ag72
aI131
aI5
aS"Watched'10 things I hate about you'and 2 / 3 of'brokeback mountain '."
p485
aI69
aI2
ag77
aI89
aI4
aS'It stayed on the whole way there and the whole way back.-Jill is staying with me next weekend.-Mission Impossible III sucks.'
p486
aI124
aI7
ag179
aI71
aI0
ag51
aI32
aI0
aS'Brokeback Mountain is beautiful...'
p487
aI34
aI2
ag20
aI27
aI5
ag17
aI84
aI4
aS" Now some people will say to me, Joe, I liked the Da Vinci code, you're being too hard on Dan Brown.\n1\tI love the da vinci code...\n1\tWell I did enjoy Bridget Jones and I loved the Da Vinci Code so this idea appeals to me and it takes Chick Lit into one of the few arenas that the genre has yet to explore...\n1\tI just read Da Vinci Code ( which was AWESOME by the way ) \xc2\xa0.\n1\tThe Da Vinci Code is excellent if you read it as normal as you read other novels,,,..\n1\tI loved the Da Vinci Code!\n1\tI love reading The Da Vinci Code!!!!\n1\tI'm telling you, the Da Vinci Code is an AWESOME book!\n1\tThen again, my opinion may be a bit biased because I loved the Da Vinci Code soundtrack. ).\n1\tAnd I was quite pleased with my own open-mindedness, after having loved The Da Vinci Code so much, that I was able to get equal enjoyment  seeing how the other side reads."
p488
aI853
aI65
aS'After some frenzied phone calls, Laura, Chris, Garrett and me all went to see Mission Impossible, which was excellent.'
p489
aI118
aI6
ag63
aI32
aI4
ag125
aI30
aI4
ag90
aI20
aI3
aS'\xc2\xb5\xc2\xaa " " = 0 = I HATE BROKEBACK MOUNTAIN..'
p490
aI42
aI22
ag72
aI131
aI5
aS"God, Yahoo Games has this truly-awful looking Da Vinci Code-themed skin on it's chessboard right now."
p491
aI101
aI6
ag173
aI22
aI3
ag80
aI112
aI11
ag63
aI32
aI4
ag32
aI120
aI0
ag70
aI47
aI1
ag50
aI78
aI8
ag68
aI77
aI10
ag49
aI92
aI3
ag15
aI20
aI3
ag21
aI34
aI4
ag471
aI26
aI0
ag179
aI71
aI0
ag109
aI57
aI5
ag119
aI30
aI3
aS'idk mission impossible looked stupid to me..'
p492
aI44
aI0
aS'the da vinci code sucked lol...'
p493
aI31
aI0
ag125
aI30
aI4
ag48
aI113
aI1
ag43
aI65
aI2
aS'I love that Harry Potter.'
p494
aI25
aI3
aS'and mission impossible orig tv shows are really awesome.......'
p495
aI62
aI0
ag8
aI61
aI4
aS'I thought Brokeback Mountain was beautiful too, and I cried too, which I NEVER do in the theater...'
p496
aI99
aI10
ag32
aI120
aI0
aS'I love Harry Potter ( the books are much better than the movies ).'
p497
aI66
aI3
ag72
aI131
aI5
ag48
aI113
aI1
ag9
aI73
aI17
ag74
aI26
aI3
ag121
aI67
aI0
ag121
aI67
aI0
ag35
aI78
aI5
ag15
aI20
aI3
aS'And I love the way our three-generation Mission Impossible team can infiltrate these events a half hour before the doors officially open...'
p498
aI139
aI4
ag58
aI66
aI10
ag142
aI47
aI3
ag49
aI92
aI3
ag57
aI25
aI3
ag57
aI25
aI3
ag66
aI53
aI0
ag152
aI40
aI2
ag37
aI30
aI2
ag71
aI80
aI3
ag12
aI41
aI11
ag87
aI35
aI1
ag56
aI37
aI5
ag32
aI120
aI0
ag9
aI73
aI17
ag160
aI34
aI2
ag379
aI32
aI3
ag173
aI22
aI3
ag77
aI89
aI4
ag22
aI132
aI11
aS'And Harry Potter looks stupid:..'
p499
aI32
aI3
ag15
aI20
aI3
ag58
aI66
aI10
ag179
aI71
aI0
ag52
aI37
aI0
ag9
aI73
aI17
ag68
aI77
aI10
ag21
aI34
aI4
ag31
aI204
aI4
aS', Ony, Monchel, and Brigid were with me to watch Brokeback Mountain, which is one horrible ass movie, god damn.'
p500
aI111
aI5
ag121
aI67
aI0
ag7
aI20
aI3
aS"Brokeback Mountain was just as depressing as the first time, but I'm glad I went to see it again."
p501
aI97
aI4
ag39
aI101
aI7
ag58
aI66
aI10
ag61
aI40
aI9
ag15
aI20
aI3
ag63
aI32
aI4
ag112
aI172
aI7
aS'I enjoy taking Harry Potter quizzes.'
p502
aI36
aI3
ag48
aI113
aI1
aS"Since I had never read a book that was not in Portuguese or Spanish, she told me to read a children's book like Harry Potter first."
p503
aI131
aI6
ag109
aI57
aI5
ag133
aI29
aI3
ag43
aI65
aI2
ag67
aI27
aI3
ag12
aI41
aI11
ag35
aI78
aI5
ag24
aI112
aI5
ag24
aI112
aI5
aS'Mission Impossible 3 was an awesome film, the characterization was great, the effects were great.'
p504
aI97
aI2
ag152
aI40
aI2
aS'hey mission impossible 3 was awesome!'
p505
aI37
aI0
ag136
aI57
aI5
ag48
aI113
aI1
ag109
aI57
aI5
ag136
aI57
aI5
ag49
aI92
aI3
ag39
aI101
aI7
ag88
aI46
aI4
ag133
aI29
aI3
ag18
aI30
aI4
ag48
aI113
aI1
ag110
aI48
aI3
ag29
aI68
aI3
ag72
aI131
aI5
ag58
aI66
aI10
ag7
aI20
aI3
ag74
aI26
aI3
aS'We liked Mission Impossible.'
p506
aI28
aI3
ag89
aI49
aI1
ag24
aI112
aI5
aS'Mission Impossible 3 is astonishingly good, fat free, and very much worth a rent.'
p507
aI81
aI2
ag58
aI66
aI10
ag10
aI21
aI3
ag66
aI53
aI0
ag160
aI34
aI2
ag38
aI44
aI3
ag90
aI20
aI3
ag77
aI89
aI4
ag179
aI71
aI0
ag44
aI139
aI4
ag9
aI73
aI17
ag77
aI89
aI4
ag90
aI20
aI3
ag112
aI172
aI7
ag54
aI19
aI2
ag71
aI80
aI3
ag19
aI44
aI3
ag77
aI89
aI4
ag74
aI26
aI3
aS'As much as I love Brokeback Mountain, it is such a shame that Capote and Transamerica('
p508
aI86
aI6
ag17
aI84
aI4
ag110
aI48
aI3
ag74
aI26
aI3
aS"i totally love the Da Vinci Code and i CA N'T wait until the movie!"
p509
aI67
aI7
ag39
aI101
aI7
ag67
aI27
aI3
ag20
aI27
aI5
ag89
aI49
aI1
ag110
aI48
aI3
ag110
aI48
aI3
aS"I've seen X-Men three times and the Da Vinci Code royally sucked..."
p510
aI67
aI6
ag22
aI132
aI11
aS'We screwed up on Malaguena so much that Russotti changed it to Harry Potter and I hate Harry Potter...'
p511
aI102
aI8
ag31
aI204
aI4
ag85
aI60
aI38
aS'The Da Vinci Code is awesome.'
p512
aI29
aI4
ag112
aI172
aI7
ag20
aI27
aI5
ag85
aI60
aI38
ag168
aI22
aI0
aS'da vinci code sucks ass.'
p513
aI24
aI0
ag63
aI32
aI4
ag68
aI77
aI10
ag87
aI35
aI1
ag18
aI30
aI4
aS'I love the theme song of mission impossible * *.'
p514
aI48
aI1
aS'So word on the street is -- The Da Vinci Code apparently sucks....'
p515
aI66
aI5
ag70
aI47
aI1
ag21
aI34
aI4
ag32
aI120
aI0
ag77
aI89
aI4
ag77
aI89
aI4
aS'Da Vinci Code is awesome!'
p516
aI25
aI3
ag37
aI30
aI2
ag80
aI112
aI11
aS"I like MISSION IMPOSSIBLE but I hate Tom Cruise, get that straight I update 2 days in a row it's like magic and shit..."
p517
aI119
aI22
ag116
aI51
aI3
ag109
aI57
aI5
ag90
aI20
aI3
aS'The Da Vinci Code was awesome..'
p518
aI31
aI4
ag70
aI47
aI1
ag168
aI22
aI0
ag8
aI61
aI4
ag15
aI20
aI3
ag160
aI34
aI2
ag16
aI26
aI20
ag85
aI60
aI38
ag22
aI132
aI11
ag11
aI62
aI3
ag72
aI131
aI5
ag72
aI131
aI5
aS'Having Brokeback Mountain action figures that are fully clothed is stupid.'
p519
aI74
aI3
ag35
aI78
aI5
ag41
aI35
aI2
ag20
aI27
aI5
ag17
aI84
aI4
aS'Even though Brokeback Mountain is one of the most depressing movies, ever...'
p520
aI76
aI3
ag68
aI77
aI10
aS'The Harry Potter books are completely amazing.'
p521
aI46
aI3
ag58
aI66
aI10
ag74
aI26
aI3
ag14
aI38
aI3
ag38
aI44
aI3
ag19
aI44
aI3
ag70
aI47
aI1
ag44
aI139
aI4
aS"I love to sing the Mission impossible song when i'm excersizing It makes it funner."
p522
aI83
aI3
ag133
aI29
aI3
ag10
aI21
aI3
ag112
aI172
aI7
ag38
aI44
aI3
ag63
aI32
aI4
ag56
aI37
aI5
ag17
aI84
aI4
ag110
aI48
aI3
ag53
aI31
aI0
ag142
aI47
aI3
ag44
aI139
aI4
ag37
aI30
aI2
ag9
aI73
aI17
ag52
aI37
aI0
ag53
aI31
aI0
ag17
aI84
aI4
ag38
aI44
aI3
ag89
aI49
aI1
ag110
aI48
aI3
aS'i thought that brokeback mountain was unbelievably beautiful!'
p523
aI61
aI0
ag53
aI31
aI0
aS'And then we went to see The Da Vinci Code, which was CRAZY awesome and Ian McKellen is my old, gay husband.'
p524
aI107
aI13
ag68
aI77
aI10
aS"I love Harry Potter, but right now I hate it ( me younger sis's watching it )."
p525
aI78
aI4
ag112
aI172
aI7
ag15
aI20
aI3
ag38
aI44
aI3
ag125
aI30
aI4
ag87
aI35
aI1
ag51
aI32
aI0
ag8
aI61
aI4
aS'A futile mission impossible ending before it even began.'
p526
aI56
aI1
aS'Brokeback Mountain is so depressing.('
p527
aI37
aI2
ag87
aI35
aI1
ag19
aI44
aI3
ag72
aI131
aI5
ag57
aI25
aI3
ag39
aI101
aI7
aS'Harry Potter is awesome...'
p528
aI26
aI2
aS'i HATE clickfive as much as i love Harry Potter.'
p529
aI48
aI6
ag15
aI20
aI3
aS'over the hedge is sooo cute and then mission impossible is awesome.'
p530
aI67
aI0
ag110
aI48
aI3
ag68
aI77
aI10
ag85
aI60
aI38
ag8
aI61
aI4
ag85
aI60
aI38
ag9
aI73
aI17
aS'Mission Impossible 3 was awesome too I agree.'
p531
aI45
aI3
aS'Brokeback Mountain-Beautiful, sweeping, moving...'
p532
aI49
aI3
ag39
aI101
aI7
ag24
aI112
aI5
ag35
aI78
aI5
ag18
aI30
aI4
ag8
aI61
aI4
ag43
aI65
aI2
ag116
aI51
aI3
ag87
aI35
aI1
ag57
aI25
aI3
ag72
aI131
aI5
aS'oh I love the book The Da VInci Code!'
p533
aI37
aI6
aS'I absolutely HATED Brokeback Mountain.'
p534
aI38
aI8
ag77
aI89
aI4
ag20
aI27
aI5
ag70
aI47
aI1
ag56
aI37
aI5
ag43
aI65
aI2
aS'The Harry Potter movies are awesome for mocking..'
p535
aI49
aI3
ag16
aI26
aI20
ag67
aI27
aI3
aS'We were at Dick\'s and yes, Daniel\'s hat actually says " I love Brokeback Mountain "!!!'
p536
aI86
aI6
ag67
aI27
aI3
ag29
aI68
aI3
ag29
aI68
aI3
aS'well mission impossible 3 sucked a lot.'
p537
aI39
aI0
aS'I hate playing Mission Impossible --- love 007..'
p538
aI48
aI3
ag17
aI84
aI4
ag64
aI39
aI3
ag56
aI37
aI5
aS'DA VINCI CODE-SUCKED BALLZ.'
p539
aI27
aI22
ag19
aI44
aI3
ag109
aI57
aI5
ag136
aI57
aI5
ag31
aI204
aI4
ag43
aI65
aI2
ag90
aI20
aI3
ag89
aI49
aI1
ag68
aI77
aI10
ag121
aI67
aI0
ag57
aI25
aI3
ag21
aI34
aI4
ag42
aI49
aI11
ag88
aI46
aI4
ag50
aI78
aI8
ag125
aI30
aI4
aS'and as much as i want to despise Tom and his scientology crusade, i still love mission impossible movies...'
p540
aI107
aI1
aS'love Harry Potter.'
p541
aI18
aI2
ag21
aI34
aI4
ag173
aI22
aI3
aS'made freaking awesome Harry Potter animated emotes.'
p542
aI51
aI2
ag136
aI57
aI5
aS'absolutely hated the Da Vinci Code...'
p543
aI37
aI3
aS" Brokeback Mountain sucked!\n0\ti hate brokeback mountain...\n0\tI OFFICIALLY * HATE * BROKEBACK MOUNTAIN!!!!!!!!!!!\n0\tIt is shameful that I hate Brokeback Mountain is just because it is more popular than Capote, but I hate it...\n0\t. Brokeback Mountain sucks.\n0\tI HATED < / b > BROKEBACK MOUNTAIN < / b >!\n0\tI absolutely hated Brokeback Mountain...\n0\tBy the master himself, the man sitting at the head of the table, is a rant on how Brokeback Mountain has made gayness so mainstream, it, well, kind of sucks...\n0\tBrokeback mountain SUCKED.\n0\tBROKEBACK MOUNTAIN STINKS..\n0\tI think the Academy was too chicken to give the Best Picture to Brokeback Mountain, and that sucks.\n0\ti hate brokeback mountain...\n0\tI OFFICIALLY * HATE * BROKEBACK MOUNTAIN!!!!!!!!!!!\n0\tI didn't hate it as much as I hated Brokeback Mountain but I did hate Sam with a passion.\n0\tBrokeback Mountain was stupid, sort of, but it had really good mountain scenes and the backdrop to the movie was good overall.\n0\tI watched Brokeback Mountain and tried my best to hate the thing.\n0\tI absolutely hated Brokeback Mountain...\n0\tAh it was nothin I love Heather shes great and I hate Will Brokeback Mountain Stites.\n0\t10 Things I Hate About You + A Knight's Tale * Brokeback Mountain =..\n0\tWhy do I hate Brokeback Mountain so much?..\n0\tokay, so everyone else i went with seemed to hate brokeback mountain, or at least josie and zach did and they were the loudest criticizers.\n0\tDidn\xc3\xa2 \xc2\x80 \xc2\x99 t see it, but much like Brokeback Mountain, don\xc3\xa2 \xc2\x80 \xc2\x99 t need to see it to know it sucks ass.\n0\tPS-Brokeback Mountain fucking sucked.\n0\tI hate Nanny McPhee and Brokeback Mountain.\n0\tPerhaps I should revise my opinion to  I hate Brokeback Mountain jokes, unless they are carefully crafted and involve one of my pop-culture loves."
p544
aI1777
aI193
aS"His new track for Mission Impossible 3 is probably the dumbest thing I've ever heard."
p545
aI85
aI4
ag32
aI120
aI0
ag80
aI112
aI11
aS'I really hate the Da Vinci Code..'
p546
aI33
aI4
ag10
aI21
aI3
aS" I hate Harry Potter.\n0\tHarry Potter can suck my clit...\n0\tSometimes all I said was'Harry Potter sucks!\n0\tFor everytime I said'Harry Potter sucks'I was outnumbered by a thousand people saying'Harry Potter RULES '.\n0\tMan, Ultimate Marvel Harry Potter sucks...\n0\tMan, Ultimate Marvel Harry Potter sucks...\n0\t Thinking back to my comment to anax, I decided to write a really awful Harry Potter fanfic, rife with faked Mary Sue-ism..."
p547
aI430
aI37
ag168
aI22
aI0
ag61
aI40
aI9
ag74
aI26
aI3
aS'for that ( but since it was my fault she is into Harry Potter...'
p548
aI64
aI2
ag133
aI29
aI3
ag74
aI26
aI3
aS'Brokeback Mountain was a pretty awesome movie.'
p549
aI46
aI2
aS'I like Harry Potter, I like Eragon, I like Lord of the Rings...'
p550
aI63
aI8
ag7
aI20
aI3
ag52
aI37
aI0
ag49
aI92
aI3
ag152
aI40
aI2
ag160
aI34
aI2
ag90
aI20
aI3
aS'Da Vinci Code is a friggin awesome book.'
p551
aI40
aI3
ag116
aI51
aI3
ag11
aI62
aI3
ag160
aI34
aI2
aS'The Da Vinci Code was awesome.'
p552
aI30
aI4
ag49
aI92
aI3
ag67
aI27
aI3
ag71
aI80
aI3
ag17
aI84
aI4
ag56
aI37
aI5
ag51
aI32
aI0
aS'I really like Harry Potter, Sports Day, The Messiah Complex and Stopped by Police stories too, as you can see I like the longer ones..'
p553
aI134
aI11
ag133
aI29
aI3
ag20
aI27
aI5
ag53
aI31
aI0
ag61
aI40
aI9
aS'meganpenworthy dressed as a character from Harry Potter and the Selfish Iron, though it looked more like Optimus Prime..'
p554
aI120
aI6
ag29
aI68
aI3
ag39
aI101
aI7
aS'da vinci code is awesome!'
p555
aI25
aI0
ag38
aI44
aI3
aS'Yeah yuck I hate Harry Potter.'
p556
aI30
aI4
ag552
aI30
aI4
ag173
aI22
aI3
ag58
aI66
aI10
aS'Brokeback Mountain and Requiem for a Dream both suck equally...'
p557
aI63
aI4
ag24
aI112
aI5
ag136
aI57
aI5
aS'brokeback mountain is so depressing.'
p558
aI36
aI0
ag179
aI71
aI0
ag7
aI20
aI3
ag22
aI132
aI11
ag15
aI20
aI3
ag80
aI112
aI11
ag35
aI78
aI5
ag152
aI40
aI2
ag22
aI132
aI11
ag136
aI57
aI5
ag37
aI30
aI2
ag71
aI80
aI3
ag31
aI204
aI4
ag125
aI30
aI4
ag56
aI37
aI5
ag360
aI70
aI7
ag16
aI26
aI20
aS'Kinda like the things off Harry Potter that give you the kiss of death and suck out your soul, condeming you to walk around forever in an empty shell of a body...'
p559
aI162
aI3
aS'even tho I hate Harry Potter, they are just funny.'
p560
aI50
aI3
aS'but I loved Brokeback Mountain!.'
p561
aI32
aI3
ag68
aI77
aI10
ag66
aI53
aI0
ag68
aI77
aI10
aS'Da Vinci Code is an awesome movie.'
p562
aI34
aI3
ag41
aI35
aI2
ag15
aI20
aI3
ag53
aI31
aI0
aS'* gasp * I LOVE the Da Vinci Code!!'
p563
aI35
aI8
ag38
aI44
aI3
ag9
aI73
aI17
ag16
aI26
aI20
ag27
aI76
aI0
ag41
aI35
aI2
ag58
aI66
aI10
ag22
aI132
aI11
ag53
aI31
aI0
aS'I have read 1984 and I hate Harry Potter..'
p564
aI42
aI4
ag173
aI22
aI3
ag121
aI67
aI0
ag72
aI131
aI5
ag39
aI101
aI7
aS"Mission Impossible III is awesome!.. [ Pictures from Erin's ].........."
p565
aI71
aI7
ag39
aI101
aI7
ag22
aI132
aI11
ag179
aI71
aI0
aS"No, I'm just sick of him making crappy Mission Impossible sequels."
p566
aI66
aI4
ag109
aI57
aI5
ag125
aI30
aI4
ag56
aI37
aI5
aS'I LOVE Harry Potter!!!'
p567
aI22
aI7
ag41
aI35
aI2
ag24
aI112
aI5
ag39
aI101
aI7
ag80
aI112
aI11
ag14
aI38
aI3
ag37
aI30
aI2
ag112
aI172
aI7
ag38
aI44
aI3
ag50
aI78
aI8
ag179
aI71
aI0
ag296
aI37
aI3
ag152
aI40
aI2
ag87
aI35
aI1
ag22
aI132
aI11
ag142
aI47
aI3
ag80
aI112
aI11
aS'Brokeback Mountain sounds beautiful...'
p568
aI38
aI2
ag64
aI39
aI3
ag58
aI66
aI10
ag61
aI40
aI9
ag31
aI204
aI4
ag11
aI62
aI3
ag116
aI51
aI3
ag7
aI20
aI3
ag32
aI120
aI0
ag12
aI41
aI11
ag35
aI78
aI5
ag50
aI78
aI8
ag11
aI62
aI3
ag56
aI37
aI5
ag74
aI26
aI3
ag74
aI26
aI3
ag27
aI76
aI0
ag116
aI51
aI3
ag58
aI66
aI10
ag11
aI62
aI3
ag63
aI32
aI4
ag8
aI61
aI4
ag22
aI132
aI11
aS'THE DA VINCI CODE is AN AWESOME BOOK....'
p569
aI40
aI27
aS"I am glad that you enjoyed it and yes, I am a big Harry Potter fan and a fan of children's literature."
p570
aI102
aI4
ag90
aI20
aI3
ag142
aI47
aI3
aS' Brokeback Mountain  is tragic, but immensely well-executed, never feeling moralistic.'
p571
aI86
aI2
ag52
aI37
aI0
ag121
aI67
aI0
ag133
aI29
aI3
ag152
aI40
aI2
ag64
aI39
aI3
aS'to see the da vinci code, which totally sucked balls.'
p572
aI53
aI0
ag19
aI44
aI3
ag64
aI39
aI3
ag20
aI27
aI5
ag109
aI57
aI5
ag89
aI49
aI1
ag66
aI53
aI0
ag9
aI73
aI17
ag110
aI48
aI3
ag63
aI32
aI4
ag90
aI20
aI3
ag72
aI131
aI5
ag68
aI77
aI10
ag43
aI65
aI2
ag74
aI26
aI3
ag74
aI26
aI3
ag64
aI39
aI3
ag125
aI30
aI4
ag71
aI80
aI3
aS'+ love undercover 3 + The Da Vinci Code....'
p573
aI43
aI4
aS"After I'd read OotP for the sixth time, I was desperate for some new Harry Potter."
p574
aI82
aI7
ag14
aI38
aI3
ag85
aI60
aI38
ag72
aI131
aI5
ag37
aI30
aI2
ag51
aI32
aI0
ag58
aI66
aI10
ag179
aI71
aI0
ag80
aI112
aI11
ag109
aI57
aI5
ag88
aI46
aI4
ag72
aI131
aI5
ag110
aI48
aI3
ag54
aI19
aI2
ag12
aI41
aI11
ag14
aI38
aI3
ag68
aI77
aI10
aS'brokeback mountain is such a beautiful movie.'
p575
aI45
aI0
ag52
aI37
aI0
ag39
aI101
aI7
ag24
aI112
aI5
aS'I durno but I hate Harry Potter..'
p576
aI33
aI4
ag77
aI89
aI4
aS"I don't want to hear from some backward ass mormon, Brokeback Mountain is a terrible movie because the news("
p577
aI108
aI3
ag179
aI71
aI0
ag125
aI30
aI4
ag447
aI56
aI7
ag15
aI20
aI3
ag64
aI39
aI3
aS'I thought Brokeback Mountain was an awful movie.'
p578
aI48
aI3
aS'Mission Impossible III sucked to a major extent.'
p579
aI48
aI5
ag9
aI73
aI17
aS'anyways Mission Impossible 3 is awesome too....'
p580
aI47
aI2
ag160
aI34
aI2
aS"The Da Vinci Code's backtory on various religious historical figures and such were interesting at times, but I'm more of scifi girl at heart."
p581
aI141
aI5
ag72
aI131
aI5
ag80
aI112
aI11
ag51
aI32
aI0
aS'Idk why, but Harry Potter icons are always the funniest.......'
p582
aI62
aI3
ag22
aI132
aI11
ag15
aI20
aI3
ag56
aI37
aI5
ag21
aI34
aI4
ag52
aI37
aI0
ag18
aI30
aI4
ag70
aI47
aI1
ag513
aI24
aI0
ag121
aI67
aI0
ag27
aI76
aI0
ag63
aI32
aI4
ag32
aI120
aI0
ag48
aI113
aI1
aS"' The Da Vinci Code'it was AWESOME."
p583
aI35
aI11
ag48
aI113
aI1
aS'I loved Brokeback Mountain.'
p584
aI27
aI3
ag64
aI39
aI3
aS"Harry Potter's awesome.."
p585
aI24
aI2
ag19
aI44
aI3
ag160
aI34
aI2
ag88
aI46
aI4
ag68
aI77
aI10
ag116
aI51
aI3
ag29
aI68
aI3
ag136
aI57
aI5
ag152
aI40
aI2
aS'I love " The Da Vinci Code!'
p586
aI27
aI5
ag173
aI22
aI3
ag64
aI39
aI3
ag24
aI112
aI5
ag51
aI32
aI0
ag44
aI139
aI4
ag109
aI57
aI5
aS'We had the Brazil meeting and then we went to the theater, and saw Mission Impossible 3, which was awesome.'
p587
aI107
aI4
ag133
aI29
aI3
ag70
aI47
aI1
ag12
aI41
aI11
ag64
aI39
aI3
ag24
aI112
aI5
ag50
aI78
aI8
ag17
aI84
aI4
ag125
aI30
aI4
ag173
aI22
aI3
ag50
aI78
aI8
ag110
aI48
aI3
ag53
aI31
aI0
ag20
aI27
aI5
ag173
aI22
aI3
ag68
aI77
aI10
ag142
aI47
aI3
aS'I want Harry Potter back!..'
p588
aI27
aI3
ag15
aI20
aI3
ag87
aI35
aI1
ag16
aI26
aI20
ag58
aI66
aI10
aS'\xe2\x80\x9c I hate you Harry Potter, \xe2\x80\x9d Hermione said childishly...'
p589
aI60
aI4
ag57
aI25
aI3
ag109
aI57
aI5
ag136
aI57
aI5
aS'That loves Harry Potter...'
p590
aI26
aI3
ag90
aI20
aI3
ag121
aI67
aI0
ag19
aI44
aI3
ag31
aI204
aI4
ag7
aI20
aI3
ag15
aI20
aI3
ag39
aI101
aI7
ag24
aI112
aI5
ag87
aI35
aI1
ag160
aI34
aI2
ag18
aI30
aI4
ag125
aI30
aI4
ag42
aI49
aI11
aS"Even though I loved Brokeback Mountain, I'm very happy Crash won Best Picture."
p591
aI78
aI8
ag53
aI31
aI0
ag24
aI112
aI5
ag32
aI120
aI0
ag112
aI172
aI7
ag14
aI38
aI3
ag71
aI80
aI3
ag160
aI34
aI2
ag13
aI113
aI1
ag57
aI25
aI3
ag19
aI44
aI3
ag136
aI57
aI5
ag56
aI37
aI5
aS'And I still think " Brokeback Mountain " was a horrible movie.'
p592
aI62
aI4
aS'then mission impossible III was awesome...'
p593
aI42
aI3
ag110
aI48
aI3
aS'weeeellllllll even though you say that The Da Vinci Code sucked, I still have to go see it because I read the book therefor.....'
p594
aI128
aI6
aS'and, danielle, what the shit are you talking about brokeback mountain was TERRIBLE!!!!..'
p595
aI88
aI8
aS"I like their Harry Potter and pop culture stuff, but I'm not very picky!."
p596
aI73
aI4
ag61
aI40
aI9
ag38
aI44
aI3
aS'brokeback mountain is amazing..'
p597
aI31
aI0
ag50
aI78
aI8
ag61
aI40
aI9
ag14
aI38
aI3
ag35
aI78
aI5
ag14
aI38
aI3
ag89
aI49
aI1
ag48
aI113
aI1
ag11
aI62
aI3
ag9
aI73
aI17
ag112
aI172
aI7
ag88
aI46
aI4
ag49
aI92
aI3
ag48
aI113
aI1
ag19
aI44
aI3
aS'Also, Brokeback Mountain sucks.'
p598
aI31
aI3
ag90
aI20
aI3
ag70
aI47
aI1
aS'MISSION IMPOSSIBLE 2 ~ REALLY SUCKS!!!!!!!!!!!!!!!!!!!!!!!!!!!..'
p599
aI64
aI28
ag110
aI48
aI3
ag110
aI48
aI3
ag352
aI26
aI5
aS'Mission Impossible 3 is awesome!!!!'
p600
aI35
aI2
aS'Mission impossible both the first and second sucked..'
p601
aI53
aI1
ag66
aI53
aI0
ag27
aI76
aI0
ag90
aI20
aI3
ag71
aI80
aI3
ag43
aI65
aI2
ag68
aI77
aI10
ag77
aI89
aI4
aS'I LOVE THE DA VINCI CODE...'
p602
aI27
aI19
aS'brokeback mountain was a HORRIBLE movie...'
p603
aI42
aI8
ag58
aI66
aI10
ag87
aI35
aI1
aS'He generally had crap, but he did have Brokeback Mountain, which was awesome.'
p604
aI77
aI3
ag56
aI37
aI5
ag14
aI38
aI3
ag179
aI71
aI0
ag56
aI37
aI5
ag58
aI66
aI10
ag125
aI30
aI4
ag15
aI20
aI3
ag179
aI71
aI0
ag7
aI20
aI3
ag16
aI26
aI20
ag11
aI62
aI3
ag152
aI40
aI2
aS'I like the Mission Impossible one personally.'
p605
aI45
aI3
aS"I wasn't even in the mood to shop yesterday and also Da Vinci Code sucked ASS."
p606
aI78
aI7
ag17
aI84
aI4
aS'i heard the da vinci code sucks as a movie.'
p607
aI43
aI0
ag38
aI44
aI3
ag160
aI34
aI2
ag68
aI77
aI10
ag15
aI20
aI3
ag125
aI30
aI4
ag15
aI20
aI3
aS'i had to go to work at 9am for stupid mission impossible 3.'
p608
aI59
aI0
ag64
aI39
aI3
ag56
aI37
aI5
aS"Harry Potter sucked hahahaha Im glad he got sent home but they all sucked I dont like 50's musicLove.."
p609
aI102
aI5
ag48
aI113
aI1
ag74
aI26
aI3
ag13
aI113
aI1
ag88
aI46
aI4
ag22
aI132
aI11
ag88
aI46
aI4
ag70
aI47
aI1
aS'i love brokeback mountain......'
p610
aI31
aI0
ag88
aI46
aI4
ag15
aI20
aI3
ag110
aI48
aI3
ag37
aI30
aI2
ag44
aI139
aI4
aS' A couple of very liberal people I know thought Brokeback Mountain was  stupid exploitation.'
p611
aI92
aI4
ag80
aI112
aI11
aS'Mission Impossible III sucks..'
p612
aI30
aI5
ag339
aI30
aI0
ag142
aI47
aI3
ag112
aI172
aI7
aS'The first action theme to be played as the fireworks went off was the \xe2\x80\x98 Mission Impossible \xe2\x80\x99 theme which was a good accompaniment to the whistles, bangs and colourfully lit up sky.'
p613
aI184
aI3
ag52
aI37
aI0
aS'I also adore Harry Potter and Hogwarts...'
p614
aI41
aI4
ag58
aI66
aI10
aS'I loved seeing Mission Impossible:'
p615
aI34
aI3
ag360
aI70
aI7
ag121
aI67
aI0
ag400
aI26
aI0
ag67
aI27
aI3
aS'we went to see brokeback mountain-which was kinda horrible lol...'
p616
aI65
aI0
ag136
aI57
aI5
ag142
aI47
aI3
ag68
aI77
aI10
ag85
aI60
aI38
ag8
aI61
aI4
ag70
aI47
aI1
ag15
aI20
aI3
ag39
aI101
aI7
ag90
aI20
aI3
ag64
aI39
aI3
ag121
aI67
aI0
aS'the da vinci code is awesome!'
p617
aI29
aI0
ag168
aI22
aI0
ag32
aI120
aI0
ag19
aI44
aI3
ag35
aI78
aI5
ag49
aI92
aI3
ag63
aI32
aI4
ag109
aI57
aI5
ag72
aI131
aI5
aS'A gay guy posted in Livejournal about how much he thought Brokeback Mountain sucked.'
p618
aI84
aI4
ag179
aI71
aI0
aS'Mission Impossible kicked ass, Mission Impossible 2 did not.'
p619
aI60
aI4
ag11
aI62
aI3
ag19
aI44
aI3
ag152
aI40
aI2
aS'Mission Impossible 3 was awesome.'
p620
aI33
aI2
ag52
aI37
aI0
ag41
aI35
aI2
ag121
aI67
aI0
aS'Mission Impossible 3 aka MI3 aka Tom Cruise vs Evil.'
p621
aI52
aI7
aS'I Hate Harry Potter.'
p622
aI20
aI4
ag121
aI67
aI0
ag41
aI35
aI2
ag20
aI27
aI5
ag88
aI46
aI4
ag152
aI40
aI2
ag71
aI80
aI3
ag16
aI26
aI20
aS'Anyway, we both love Harry Potter, books, Pirates of the Caribbean, taking pictures, and writing and we have the same sarcastic and quirky sense of humor.'
p623
aI154
aI5
ag110
aI48
aI3
ag7
aI20
aI3
aS'After that we decided to see Mission Impossible III which sucked a little bit.'
p624
aI78
aI6
ag53
aI31
aI0
ag27
aI76
aI0
ag85
aI60
aI38
ag29
aI68
aI3
ag8
aI61
aI4
ag168
aI22
aI0
ag160
aI34
aI2
aS'Brokeback Mountain is officially the most depressing movie I have seen in the last 6 months...'
p625
aI94
aI3
ag32
aI120
aI0
ag21
aI34
aI4
ag53
aI31
aI0
ag88
aI46
aI4
aS'I liked the movie Brokeback Mountain.'
p626
aI37
aI3
ag74
aI26
aI3
ag48
aI113
aI1
ag61
aI40
aI9
ag31
aI204
aI4
ag70
aI47
aI1
ag142
aI47
aI3
ag41
aI35
aI2
ag74
aI26
aI3
ag110
aI48
aI3
ag66
aI53
aI0
aS'Brokeback Mountain is an excellent movie, I love it after watching it!'
p627
aI70
aI3
ag50
aI78
aI8
ag44
aI139
aI4
aS'Brokeback Mountain is one hell of a depressing movie.'
p628
aI53
aI2
ag90
aI20
aI3
ag58
aI66
aI10
ag64
aI39
aI3
ag152
aI40
aI2
aS'mission impossible did kick ass and yes jessica is pretty damn dumb..'
p629
aI69
aI0
ag17
aI84
aI4
ag142
aI47
aI3
ag64
aI39
aI3
ag56
aI37
aI5
ag70
aI47
aI1
ag14
aI38
aI3
ag87
aI35
aI1
ag10
aI21
aI3
ag7
aI20
aI3
ag50
aI78
aI8
ag90
aI20
aI3
ag72
aI131
aI5
aS'The Da Vinci Code sucks.'
p630
aI24
aI4
aS'Because of this project, I fucking hate the Da Vinci Code.'
p631
aI58
aI5
ag12
aI41
aI11
ag90
aI20
aI3
aS'Da Vinci Code was AWESOME..'
p632
aI27
aI10
ag53
aI31
aI0
ag116
aI51
aI3
aS' Brokeback Mountain  was extremely depressing.'
p633
aI46
aI2
ag32
aI120
aI0
ag44
aI139
aI4
ag31
aI204
aI4
ag16
aI26
aI20
ag71
aI80
aI3
ag44
aI139
aI4
ag136
aI57
aI5
ag136
aI57
aI5
ag29
aI68
aI3
ag133
aI29
aI3
ag32
aI120
aI0
ag41
aI35
aI2
ag58
aI66
aI10
ag133
aI29
aI3
ag24
aI112
aI5
ag51
aI32
aI0
ag53
aI31
aI0
ag19
aI44
aI3
ag66
aI53
aI0
ag72
aI131
aI5
ag72
aI131
aI5
ag110
aI48
aI3
ag71
aI80
aI3
ag24
aI112
aI5
ag121
aI67
aI0
ag38
aI44
aI3
aS"And so this girl ( okay, it's totally me ), who loved Equus and Harry Potter in equal measure, BOUGHT A TICKET TO THE SHOW ON MARCH 31st!.."
p634
aI139
aI33
ag152
aI40
aI2
ag142
aI47
aI3
ag80
aI112
aI11
ag38
aI44
aI3
ag58
aI66
aI10
ag35
aI78
aI5
ag70
aI47
aI1
aS'Brokeback mountain sucks...'
p635
aI27
aI1
ag121
aI67
aI0
ag66
aI53
aI0
ag152
aI40
aI2
aS'After two viewings Mission Impossible 3 is still fucking awesome...'
p636
aI67
aI3
ag136
aI57
aI5
aS"Good Night and Good Luck's a close second, but I freaking hated Brokeback Mountain."
p637
aI83
aI7
ag89
aI49
aI1
aS'Personally, I neither hate nor love the Da Vinci Code.'
p638
aI54
aI5
ag11
aI62
aI3
ag17
aI84
aI4
aS'THE DA VINCI CODE SUCKS.'
p639
aI24
aI19
ag37
aI30
aI2
ag56
aI37
aI5
ag125
aI30
aI4
aS'and i wanna shout out a big fat thank you to esther for calling me and asking if i wanted the brokeback mountain screenplay from the mph sale at the expo...'
p640
aI156
aI0
ag10
aI21
aI3
ag179
aI71
aI0
ag87
aI35
aI1
ag22
aI132
aI11
aS'lol nd i heard da vinci code sucks..'
p641
aI36
aI0
aS'brokeback mountain sucks anus, and thats a fact...'
p642
aI50
aI0
ag77
aI89
aI4
ag121
aI67
aI0
ag16
aI26
aI20
aS'yeah, I love Harry Potter to death, lol!..'
p643
aI42
aI3
ag512
aI29
aI4
ag63
aI32
aI4
ag11
aI62
aI3
ag112
aI172
aI7
ag11
aI62
aI3
ag22
aI132
aI11
aS'I love the Da Vinci code...'
p644
aI27
aI3
ag160
aI34
aI2
ag110
aI48
aI3
ag63
aI32
aI4
ag37
aI30
aI2
ag15
aI20
aI3
ag17
aI84
aI4
ag22
aI132
aI11
ag116
aI51
aI3
ag57
aI25
aI3
ag112
aI172
aI7
aS'Mission Impossible is an EXCELLENT movie.'
p645
aI41
aI11
ag14
aI38
aI3
ag37
aI30
aI2
ag48
aI113
aI1
ag72
aI131
aI5
ag74
aI26
aI3
ag18
aI30
aI4
ag87
aI35
aI1
aS'I really love Brokeback Mountain, its a wonderful film!!!'
p646
aI57
aI3
ag31
aI204
aI4
ag52
aI37
aI0
ag85
aI60
aI38
ag110
aI48
aI3
ag9
aI73
aI17
ag49
aI92
aI3
ag43
aI65
aI2
ag15
aI20
aI3
ag16
aI26
aI20
ag77
aI89
aI4
aS'MISSION IMPOSSIBLE III IS GOING TO SUCK BALLS!!!..'
p647
aI50
aI38
ag21
aI34
aI4
ag8
aI61
aI4
ag89
aI49
aI1
ag41
aI35
aI2
ag27
aI76
aI0
ag66
aI53
aI0
aS"I also think The Da Vinci Code sucked balls and it's the worst piece of shit I've ever read."
p648
aI92
aI6
ag112
aI172
aI7
aS'And brokeback mountain can suck my dick...'
p649
aI42
aI1
ag89
aI49
aI1
ag89
aI49
aI1
ag50
aI78
aI8
ag32
aI120
aI0
ag67
aI27
aI3
ag20
aI27
aI5
ag58
aI66
aI10
aS"children's texts-fantasy perhaps most obviously-is often criticized for oversimplifying the struggle of good vs. evil ( Harry Potter might be a good example of this )."
p650
aI167
aI2
ag41
aI35
aI2
ag63
aI32
aI4
ag9
aI73
aI17
ag44
aI139
aI4
aS'Brokeback Mountain is a beautiful place, picturesque, quaintly attractive, impressive.'
p651
aI86
aI2
ag12
aI41
aI11
aS'Then we went to the movies and saw The Da Vinci Code which honestly, was the most awesome movie I have ever seen.'
p652
aI113
aI6
ag21
aI34
aI4
ag49
aI92
aI3
ag116
aI51
aI3
ag125
aI30
aI4
aS"I'm not a big TC fan either but I like Mission Impossible."
p653
aI58
aI6
ag18
aI30
aI4
aS'I think RENT / Brokeback Mountain might be pretty awkward and awful together.....'
p654
aI81
aI7
ag56
aI37
aI5
aS"in other news, the da vinci code sucks a lama's balls....."
p655
aI58
aI0
ag168
aI22
aI0
ag37
aI30
aI2
aS'after supper, we watched brokeback mountain, which is an awesome movie!'
p656
aI71
aI0
ag176
aI73
aI4
ag29
aI68
aI3
ag21
aI34
aI4
ag44
aI139
aI4
ag168
aI22
aI0
ag43
aI65
aI2
ag13
aI113
aI1
ag19
aI44
aI3
ag11
aI62
aI3
ag9
aI73
aI17
aS'Harry Potter & the Goblet of Fire: " it is good it folows on from the other movies "..'
p657
aI86
aI4
aS'Wiccans react to possible Harry Potter book ban Marcia Gaither, who teaches classes in Wiccanism, says the controversy about Harry Potter is absurd.'
p658
aI148
aI8
ag38
aI44
aI3
ag61
aI40
aI9
ag24
aI112
aI5
ag39
aI101
aI7
ag13
aI113
aI1
ag41
aI35
aI2
ag152
aI40
aI2
ag51
aI32
aI0
aS'Interview with the Vampire, Anne Rice [ Okay, I might hate this one as much as I hate Harry Potter.'
p659
aI99
aI9
ag53
aI31
aI0
aS'I think I will hate Mission Impossible 3;'
p660
aI41
aI4
ag61
aI40
aI9
ag32
aI120
aI0
ag15
aI20
aI3
ag57
aI25
aI3
ag51
aI32
aI0
ag49
aI92
aI3
ag61
aI40
aI9
aS' Brokeback Mountain  was also very excellent.'
p661
aI45
aI2
ag179
aI71
aI0
ag160
aI34
aI2
ag20
aI27
aI5
aS'Mission Impossible 3 was AWESOME...'
p662
aI35
aI9
ag14
aI38
aI3
aS"I liked the Da Vinci Code but it ultimatly didn't seem to hold it's own."
p663
aI72
aI4
ag110
aI48
aI3
ag66
aI53
aI0
ag50
aI78
aI8
ag63
aI32
aI4
ag37
aI30
aI2
ag35
aI78
aI5
ag7
aI20
aI3
aS'I liked Crash a lot, I liked Brokeback Mountain, but GN & GL was the important movie that the other two were hyped as being...'
p664
aI126
aI9
ag31
aI204
aI4
ag67
aI27
aI3
ag90
aI20
aI3
ag20
aI27
aI5
ag67
aI27
aI3
ag136
aI57
aI5
ag49
aI92
aI3
ag58
aI66
aI10
aS'Brokeback mountain sucks too...'
p665
aI31
aI1
ag179
aI71
aI0
ag63
aI32
aI4
ag112
aI172
aI7
ag15
aI20
aI3
ag13
aI113
aI1
ag74
aI26
aI3
ag29
aI68
aI3
aS'I HATED Mission Impossible 2..'
p666
aI30
aI8
ag51
aI32
aI0
ag51
aI32
aI0
ag27
aI76
aI0
aS'Brokeback Mountain was beautiful...'
p667
aI35
aI2
ag37
aI30
aI2
ag17
aI84
aI4
ag136
aI57
aI5
aS'Da Vinci Code kinda stinks!...'
p668
aI30
aI3
ag74
aI26
aI3
ag14
aI38
aI3
ag14
aI38
aI3
ag51
aI32
aI0
ag50
aI78
aI8
ag22
aI132
aI11
ag72
aI131
aI5
ag17
aI84
aI4
ag11
aI62
aI3
aS'And better...-We all know Da Vinci code is bogus and inaccurate.'
p669
aI64
aI4
aS'da vinci code will suck!'
p670
aI24
aI0
ag15
aI20
aI3
ag32
aI120
aI0
ag70
aI47
aI1
ag80
aI112
aI11
ag85
aI60
aI38
ag48
aI113
aI1
aS'When I was in primary school, I loved Harry Potter to bits.'
p671
aI59
aI5
ag152
aI40
aI2
ag58
aI66
aI10
ag88
aI46
aI4
ag42
aI49
aI11
aS'* He deemed me cool because I like Gavin DeGraw, Harry Potter, The Beatles, and drawing..'
p672
aI89
aI9
ag77
aI89
aI4
ag173
aI22
aI3
ag9
aI73
aI17
ag160
aI34
aI2
ag31
aI204
aI4
ag16
aI26
aI20
ag89
aI49
aI1
ag66
aI53
aI0
aS'Harry Potter Rocks!!!!!!!!!'
p673
aI27
aI3
ag7
aI20
aI3
aS'I love your coloured Harry Potter too: ).'
p674
aI41
aI3
ag152
aI40
aI2
aS'i would love to dart around with the mission impossible song.. [ Considered being a hooker? ]...'
p675
aI96
aI1
ag10
aI21
aI3
ag21
aI34
aI4
ag71
aI80
aI3
aS"By the way, Mission Impossible is an awesome movie if you're looking for a suspenseful movie that's ALL action and little story..."
p676
aI130
aI6
ag179
aI71
aI0
aS"I'll probably get murdered a thousand times over by everyone for saying it, but I hate Harry Potter."
p677
aI100
aI4
ag168
aI22
aI0
aS'In other news, The Da Vinci code sucks and Symantec is suing Microsoft...'
p678
aI73
aI6
ag50
aI78
aI8
ag22
aI132
aI11
ag90
aI20
aI3
ag109
aI57
aI5
ag29
aI68
aI3
ag16
aI26
aI20
aS'I LOVE Brokeback Mountain!!!.'
p679
aI29
aI7
ag43
aI65
aI2
ag179
aI71
aI0
ag35
aI78
aI5
ag7
aI20
aI3
ag66
aI53
aI0
ag50
aI78
aI8
ag15
aI20
aI3
aS'Hey I loved The Da Vinci Code!..'
p680
aI32
aI6
aS"I agree with you, I loved Da Vinci Code, I just think it's ridiculous for people to get their panties in a bunch about the heresies and blashpemies and whatever the hell else it allegedly contains."
p681
aI197
aI6
ag109
aI57
aI5
ag74
aI26
aI3
aS'I hate this Brokeback Mountain shit.'
p682
aI36
aI3
ag179
aI71
aI0
ag136
aI57
aI5
ag142
aI47
aI3
ag52
aI37
aI0
ag90
aI20
aI3
aS'And by the way, Da Vinci Code movie sucks ass..'
p683
aI47
aI4
ag179
aI71
aI0
ag67
aI27
aI3
ag21
aI34
aI4
ag89
aI49
aI1
aS'I actually loved Da Vinci Code.'
p684
aI31
aI4
ag61
aI40
aI9
aS"I was thinking of re-reading the 6th Harry Potter book ( Half-Blood Prince ) which is an awesome book and I can't wait to read the final one when it comes out."
p685
aI159
aI7
ag74
aI26
aI3
ag57
aI25
aI3
ag38
aI44
aI3
ag29
aI68
aI3
ag85
aI60
aI38
ag22
aI132
aI11
aS'watched mission impossible 3 wif stupid haha...'
p686
aI47
aI0
ag24
aI112
aI5
ag70
aI47
aI1
ag68
aI77
aI10
ag21
aI34
aI4
aS'Harry Potter sucks arse.'
p687
aI24
aI2
ag11
aI62
aI3
aS'outta all three i just loved the da vinci code.'
p688
aI47
aI0
ag43
aI65
aI2
ag52
aI37
aI0
ag109
aI57
aI5
ag43
aI65
aI2
aS'lol ya and then i went to MISSION IMPOSSIBLE 3 which WAS AWESOMELY AWESOME!'
p689
aI75
aI36
ag63
aI32
aI4
ag669
aI64
aI4
ag53
aI31
aI0
ag35
aI78
aI5
ag67
aI27
aI3
ag77
aI89
aI4
ag88
aI46
aI4
ag13
aI113
aI1
aS'In " Harry Potter and the Prisoner of Azkaban, " you see Dementors that suck the Life and Joy out of you and taking your Will to Live.'
p690
aI134
aI10
ag29
aI68
aI3
ag160
aI34
aI2
aS'Harry Potter -- the other two suck.'
p691
aI35
aI2
aS'and i hate Harry Potter.'
p692
aI24
aI2
aS'Brokeback Mountain was incredibly depressing, I liked it, but it was quite depressing.'
p693
aI86
aI3
ag136
aI57
aI5
ag558
aI36
aI0
ag39
aI101
aI7
ag39
aI101
aI7
ag109
aI57
aI5
ag51
aI32
aI0
aS'Had an interesting conversation with one of the professors I work for about how Da Vinci Code sucks...'
p694
aI102
aI5
ag48
aI113
aI1
aS'You know, the Harry Potter books are decent enough, and I \xe2\x80\x99 m glad they \xe2\x80\x99 ve got kids reading, and reading big thick books at that.'
p695
aI135
aI4
ag72
aI131
aI5
ag32
aI120
aI0
ag48
aI113
aI1
ag57
aI25
aI3
aS'Again, I hate those homophobic critics who dislike Brokeback Mountain.'
p696
aI70
aI4
ag61
aI40
aI9
ag90
aI20
aI3
ag14
aI38
aI3
ag58
aI66
aI10
ag18
aI30
aI4
ag685
aI159
aI7
ag43
aI65
aI2
ag67
aI27
aI3
ag160
aI34
aI2
ag447
aI56
aI7
ag35
aI78
aI5
ag37
aI30
aI2
ag179
aI71
aI0
aS'brokeback mountain was beautiful.'
p697
aI33
aI0
aS'in any case, i LOVED brokeback mountain.'
p698
aI40
aI5
ag85
aI60
aI38
ag109
aI57
aI5
ag7
aI20
aI3
ag11
aI62
aI3
aS'then dinner with min and rosie and brokeback mountain which was an awful movie.'
p699
aI79
aI0
aS"Harry Potter and the Sorcerer's Stone is great but I had forgotten what a low reading level it is. > _ <.."
p700
aI106
aI5
ag31
aI204
aI4
ag70
aI47
aI1
ag31
aI204
aI4
ag121
aI67
aI0
ag121
aI67
aI0
aS'mission impossible 3 sucks man..'
p701
aI32
aI0
ag57
aI25
aI3
ag39
aI101
aI7
ag85
aI60
aI38
aS'Brokeback Mountain was the most tragically beautiful movie I have ever...'
p702
aI73
aI3
ag173
aI22
aI3
aS'1-BROKEBACK MOUNTAIN IS A STUPID MOVIE.'
p703
aI39
aI31
ag89
aI49
aI1
aS'also, the da vinci code is AWESOME.'
p704
aI35
aI7
aS'I HATED Da Vinci Code!'
p705
aI22
aI9
ag85
aI60
aI38
aS'D i loathed mission impossible 2, but this one was involving and i really enjoyed it!'
p706
aI85
aI1
ag19
aI44
aI3
ag61
aI40
aI9
ag72
aI131
aI5
ag29
aI68
aI3
ag10
aI21
aI3
ag173
aI22
aI3
aS'WAAAAAAAAAAAAAAAAAAAAAAAAAAAAAAAAAAAAAAAAAAAAAAAAAAAAAAAAAAAAA WELL THEY CAN ALL DIE BROKEBACK MOUNTAIN SUCKS.'
p707
aI110
aI101
ag63
aI32
aI4
ag56
aI37
aI5
ag38
aI44
aI3
ag112
aI172
aI7
ag168
aI22
aI0
ag14
aI38
aI3
ag112
aI172
aI7
ag49
aI92
aI3
ag173
aI22
aI3
ag37
aI30
aI2
ag160
aI34
aI2
aS" I loved Brokeback Mountain and I haven't seen Crash, but I still feel like people are...\n1\tIf you know me at all, you know that I absolutely love Brokeback Mountain.\n1\tI love brokeback Mountain!..\n1\tBrokeback Mountain is still a beautiful film, and nothing changes that!..\n1\tBrokeback Mountain had a beautiful score, and since it did not receive Best Picture, they had to give it something, not just best director.\n1\ti loved brokeback mountain!:(\n1\tBrokeback Mountain-This movie is beautiful start to finish.\n1\tAnd I heard that Brokeback Mountain is AWESOME!..\n1\tBeautiful random thoughts on Brokeback Mountain.\n1\ti LOVE back to the future, and i love brokeback mountain.\n1\tWell, Brokeback Mountain was pretty awesome too, but this movie......\n1\tBrokeback mountain was awesome.\n1\tBrokeback Mountain which was AWESOME..\n1\tI think I may just be bitter because I absolutely loved Brokeback Mountain and when you say you liked some other movie(\n1\tBrokeback Mountain is bound to be awesome...\n1\tBrokeback Mountain is beautiful(\n1\tDon't get me wrong, I love brokeback mountain, but I think it has more to do that only white people can talk about racism and wins an oscar.\n1\tI loved Brokeback Mountain, though I think you're right about its being acceptable in mainstream culture because it doesn't challenge that culture's heteronormativity.\n1\tI love Brokeback Mountain and I'm so dissapointed and surprised that it did not win the best picture and best actor...\n1\tBrokeback Mountain was awesome.\n1\tBrokeback Mountain is packed with beautiful sceneries and such.\n1\tI love Brokeback Mountain.\n1\tI love Brokeback Mountain....\n1\tHe's like,'YEAH I GOT ACNE AND I LOVE BROKEBACK MOUNTAIN '..\n1\tBrokeback Mountain was so awesome.\n1\tBrokeback Mountain was an AWESOME movie.\n1\tman i loved brokeback mountain!\n1\tdudeee i LOVED brokeback mountain!!!!\n1\tI either LOVE Brokeback Mountain or think it's great that homosexuality is becoming more acceptable!:\n1\tAnyway, thats why I love  Brokeback Mountain."
p708
aI1987
aI147
ag66
aI53
aI0
ag160
aI34
aI2
ag173
aI22
aI3
ag80
aI112
aI11
aS'I hated Mission Impossible..'
p709
aI28
aI3
aS"I overslept though so jenn and i didn't get to see the da vinci code which sucked and now i have no money so yeah maybe later."
p710
aI126
aI1
aS"and we snuck in ] and going to Springer's. [ BROKEBACK MOUNTAIN IS AWESOME!!!-Yes I finally saw it."
p711
aI99
aI29
ag133
aI29
aI3
ag168
aI22
aI0
ag15
aI20
aI3
ag37
aI30
aI2
ag112
aI172
aI7
ag24
aI112
aI5
aS'Brokeback mountain SUCKS..'
p712
aI26
aI6
ag22
aI132
aI11
ag53
aI31
aI0
ag48
aI113
aI1
ag116
aI51
aI3
ag42
aI49
aI11
ag112
aI172
aI7
ag110
aI48
aI3
ag61
aI40
aI9
ag39
aI101
aI7
ag80
aI112
aI11
ag85
aI60
aI38
ag38
aI44
aI3
ag67
aI27
aI3
ag136
aI57
aI5
ag630
aI24
aI4
ag44
aI139
aI4
ag88
aI46
aI4
aS"i know it's kind of a delayed reaction but banning the da vinci code sucks beans big time."
p713
aI90
aI0
aS'Derek and I saw 3 movies, Brokeback Mountain, which was beautiful, I almost cried.'
p714
aI82
aI5
aS'Its hard to decide on what move ti see when there are 2 good ones playing, I would love to see the Da Vinci Code but on the other hand Over The Hedge looks very funny...'
p715
aI169
aI8
ag136
aI57
aI5
ag15
aI20
aI3
ag41
aI35
aI2
ag9
aI73
aI17
aS'and mission impossible 3 was awesome.'
p716
aI37
aI0
ag51
aI32
aI0
ag15
aI20
aI3
ag87
aI35
aI1
ag18
aI30
aI4
ag15
aI20
aI3
aS"I also love Harry Potter,, and I'm strangely drawn to vampire books ( don't ask me why )."
p717
aI89
aI4
aS'The more you say The Da Vinci Code is evil, the more people will read it.'
p718
aI73
aI5
aS'but whatever it is,. i really hate the da vinci code..'
p719
aI54
aI0
ag14
aI38
aI3
ag27
aI76
aI0
aS'I love its Harry Potter Hall ~ kaka..'
p720
aI37
aI4
ag49
aI92
aI3
ag68
aI77
aI10
ag57
aI25
aI3
ag179
aI71
aI0
ag70
aI47
aI1
ag53
aI31
aI0
ag87
aI35
aI1
ag42
aI49
aI11
ag39
aI101
aI7
ag49
aI92
aI3
ag67
aI27
aI3
ag19
aI44
aI3
ag57
aI25
aI3
ag18
aI30
aI4
aS"16 \xc2\xa3 \xc2\xa9 Brokeback Hill-Form 2 because I love Brokeback Mountain -- the movie, not because I'm queer, of course I ain't.."
p721
aI121
aI8
aS'mang i could of told you the da vinci code suck!'
p722
aI48
aI0
aS'I know Da Vinci Code is going to suck.'
p723
aI38
aI4
ag18
aI30
aI4
ag32
aI120
aI0
ag116
aI51
aI3
ag87
aI35
aI1
aS'to their right ALSO read and LOVED the Da Vinci code.'
p724
aI53
aI11
aS'Brokeback Mountain is a really depressing movie...'
p725
aI50
aI2
ag18
aI30
aI4
aS'Da vinci Code is one beautiful movie..'
p726
aI38
aI2
ag41
aI35
aI2
ag121
aI67
aI0
ag42
aI49
aI11
ag85
aI60
aI38
ag17
aI84
aI4
ag32
aI120
aI0
ag179
aI71
aI0
ag19
aI44
aI3
ag32
aI120
aI0
ag49
aI92
aI3
ag179
aI71
aI0
ag133
aI29
aI3
aS'Harry Potter is awesome!'
p727
aI24
aI2
ag173
aI22
aI3
ag22
aI132
aI11
ag12
aI41
aI11
ag173
aI22
aI3
ag42
aI49
aI11
aS'I personaly like Harry Potter, And I encourage kids to read the book, It is Wholesome FOR FUCK SAKES....'
p728
aI104
aI19
aS'da vinci code kinda sucked -- u guys should watch THE OMEN -- muahahaahahah.'
p729
aI76
aI7
ag112
aI172
aI7
aS"Still haven't seen the Da Vinci Code, which kinda sucks.."
p730
aI57
aI4
ag67
aI27
aI3
ag12
aI41
aI11
ag179
aI71
aI0
ag110
aI48
aI3
ag56
aI37
aI5
ag10
aI21
aI3
ag71
aI80
aI3
ag19
aI44
aI3
ag125
aI30
aI4
ag27
aI76
aI0
ag14
aI38
aI3
ag13
aI113
aI1
ag41
aI35
aI2
ag179
aI71
aI0
ag173
aI22
aI3
ag41
aI35
aI2
ag152
aI40
aI2
ag447
aI56
aI7
ag71
aI80
aI3
aS'I know, I know, mission impossible 2 sucked royally.'
p731
aI52
aI2
ag51
aI32
aI0
ag17
aI84
aI4
ag142
aI47
aI3
ag42
aI49
aI11
ag61
aI40
aI9
ag80
aI112
aI11
ag136
aI57
aI5
ag12
aI41
aI11
ag51
aI32
aI0
ag38
aI44
aI3
ag29
aI68
aI3
ag32
aI120
aI0
ag32
aI120
aI0
ag67
aI27
aI3
ag125
aI30
aI4
ag38
aI44
aI3
ag58
aI66
aI10
ag7
aI20
aI3
ag12
aI41
aI11
ag20
aI27
aI5
ag52
aI37
aI0
ag18
aI30
aI4
aS'Also I love Lord of the Rings, but I hate Harry Potter because he needs a haircut.'
p732
aI82
aI7
ag37
aI30
aI2
ag15
aI20
aI3
ag48
aI113
aI1
aS'I just have to say that the new Mission Impossible 3 is AWESOME!!'
p733
aI65
aI10
ag58
aI66
aI10
ag9
aI73
aI17
ag11
aI62
aI3
ag136
aI57
aI5
ag109
aI57
aI5
ag179
aI71
aI0
ag24
aI112
aI5
ag80
aI112
aI11
ag19
aI44
aI3
ag67
aI27
aI3
aS'The Da Vinci Code sucked balls.'
p734
aI31
aI4
ag64
aI39
aI3
ag17
aI84
aI4
aS'And I like Harry Potter.'
p735
aI24
aI4
ag116
aI51
aI3
ag53
aI31
aI0
aS'Harry Potter Sucks.'
p736
aI19
aI3
ag11
aI62
aI3
ag72
aI131
aI5
aS'Harry Potter & the Goblet of Fire was awesome!..'
p737
aI48
aI4
ag20
aI27
aI5
aS'brokeback mountain is such an awesome movie.'
p738
aI44
aI0
ag71
aI80
aI3
ag168
aI22
aI0
ag66
aI53
aI0
ag112
aI172
aI7
ag11
aI62
aI3
ag48
aI113
aI1
aS'the Da Vinci Code suck ass..'
p739
aI28
aI3
ag42
aI49
aI11
ag14
aI38
aI3
ag35
aI78
aI5
ag32
aI120
aI0
ag15
aI20
aI3
aS'even though i really loved brokeback mountain...'
p740
aI48
aI0
aS'I HATED the ending to brokeback mountain...'
p741
aI43
aI6
ag52
aI37
aI0
ag110
aI48
aI3
aS'brokeback mountain was so stupid.'
p742
aI33
aI0
ag125
aI30
aI4
ag109
aI57
aI5
ag74
aI26
aI3
aS'* dies * I love Harry Potter...'
p743
aI31
aI3
ag64
aI39
aI3
ag142
aI47
aI3
ag43
aI65
aI2
aS'The Harry Potter Earrings Girl was awesome...'
p744
aI45
aI5
ag31
aI204
aI4
ag13
aI113
aI1
ag71
aI80
aI3
ag57
aI25
aI3
ag70
aI47
aI1
ag71
aI80
aI3
ag31
aI204
aI4
aS'said " The Da Vinci Code " suck..'
p745
aI33
aI4
ag72
aI131
aI5
aS'Think Mission Impossible, think Bond Girls, think kicking ass and looking hot.'
p746
aI78
aI5
ag18
aI30
aI4
ag21
aI34
aI4
ag71
aI80
aI3
ag11
aI62
aI3
ag66
aI53
aI0
aS'Brokeback mountain is BEAUTIFUL.'
p747
aI32
aI10
ag63
aI32
aI4
ag67
aI27
aI3
ag90
aI20
aI3
ag31
aI204
aI4
ag41
aI35
aI2
ag24
aI112
aI5
ag58
aI66
aI10
ag51
aI32
aI0
aS'so mission impossible was awesome My Daddy was the speaker and he did an exelent job I got first with ten ticket in the game Jamie got 2 she had 8 and my lil bro tied for 3 with 7.'
p748
aI180
aI4
ag27
aI76
aI0
ag22
aI132
aI11
ag13
aI113
aI1
aS'The Da vinci code really is a awesome book, you also got the other two books by Dan Brown?..'
p749
aI92
aI4
ag87
aI35
aI1
ag87
aI35
aI1
ag110
aI48
aI3
ag80
aI112
aI11
ag24
aI112
aI5
ag18
aI30
aI4
ag12
aI41
aI11
ag16
aI26
aI20
aS'It was awesome, I finished up my tests, and afterschool I relaxed for a while, and then i ate at Margaritas w / Emily, and then we went to watch Mission Impossible III, which was AWESOME!'
p750
aI187
aI17
ag43
aI65
aI2
aS'I want to be a part of this community because I love Harry Potter and want to discuss it and theories about book 7 with other people that love Harry Potter.'
p751
aI156
aI6
ag50
aI78
aI8
ag12
aI41
aI11
ag51
aI32
aI0
ag29
aI68
aI3
ag51
aI32
aI0
ag21
aI34
aI4
ag35
aI78
aI5
ag80
aI112
aI11
ag49
aI92
aI3
aS'I know you are all wondering now about whom I love more \xef\xbf\xbd Harry Potter or Eragon Shadeslayer \xef\xbf\xbd the truth is and will always be Harry Potter.'
p752
aI144
aI8
aS'i love brokeback mountain..'
p753
aI27
aI0
ag24
aI112
aI5
ag58
aI66
aI10
ag19
aI44
aI3
ag61
aI40
aI9
ag179
aI71
aI0
ag48
aI113
aI1
ag35
aI78
aI5
aS'I just came back from the movies, my mom and I watched Mission Impossible 3, which was an awesome movie.'
p754
aI104
aI4
ag52
aI37
aI0
ag71
aI80
aI3
ag88
aI46
aI4
ag142
aI47
aI3
ag37
aI30
aI2
ag89
aI49
aI1
ag64
aI39
aI3
aS" Brokeback Mountain was an awesome movie. < 33..\n1\tThank u! omg I love Brokeback Mountain!\n1\tI love Brokeback Mountain.\n1\tI love brokeback mountain.\n1\tBrokeback Mountain is a beautiful movie...\n1\tI LOVE Brokeback Mountain...\n1\tI loved brokeback mountain.\n1\tI LOVE BROKEBACK MOUNTAIN!!!!..\n1\tI actually loved Brokeback Mountain..\n1\tBy the way, Brokeback Mountain is beautiful..\n1\tand Brokeback mountain was AWESOME.\n1\t I could have discussed the abortion ban in South Dakota, or how I love Brokeback Mountain, or how I'd really like to go to a strip club to better understand the sexual politics of the industry."
p755
aI611
aI63
ag50
aI78
aI8
ag152
aI40
aI2
ag72
aI131
aI5
ag61
aI40
aI9
ag179
aI71
aI0
aS'In her rant, with generalized condemnation of the entire Hollywood industry, the people who actually voted for " Brokeback Mountain " are targeted as part of the same stupid mob...'
p756
aI180
aI4
ag20
aI27
aI5
aS'I love playing defensive positions and i love brokeback mountain..'
p757
aI66
aI1
ag29
aI68
aI3
aS'why i hate The Da Vinci Code...'
p758
aI31
aI4
ag20
aI27
aI5
ag109
aI57
aI5
ag42
aI49
aI11
ag52
aI37
aI0
aS"I don't care what anyone says, Brokeback Mountain was a shitty movie..."
p759
aI71
aI3
ag13
aI113
aI1
ag11
aI62
aI3
aS'I LOVED Mission Impossible 3..'
p760
aI30
aI8
ag121
aI67
aI0
ag12
aI41
aI11
ag12
aI41
aI11
aS'I hated The Da Vinci Code...'
p761
aI28
aI5
ag112
aI172
aI7
ag87
aI35
aI1
ag173
aI22
aI3
ag77
aI89
aI4
ag52
aI37
aI0
ag32
aI120
aI0
ag89
aI49
aI1
ag42
aI49
aI11
ag67
aI27
aI3
ag42
aI49
aI11
ag61
aI40
aI9
ag51
aI32
aI0
ag173
aI22
aI3
ag578
aI48
aI3
ag173
aI22
aI3
ag16
aI26
aI20
ag13
aI113
aI1
ag16
aI26
aI20
ag18
aI30
aI4
ag133
aI29
aI3
ag133
aI29
aI3
aS'Personally, I love reading Harry Potter books.'
p762
aI46
aI4
aS'Da Vinci Code sucks...'
p763
aI22
aI3
ag15
aI20
aI3
ag37
aI30
aI2
ag109
aI57
aI5
ag20
aI27
aI5
ag8
aI61
aI4
aS'I love Harry Potter = ) ) )..'
p764
aI29
aI3
ag41
aI35
aI2
aS'I loved the latest " Mission Impossible " and think it('
p765
aI55
aI3
ag152
aI40
aI2
ag58
aI66
aI10
ag17
aI84
aI4
ag14
aI38
aI3
ag71
aI80
aI3
ag44
aI139
aI4
ag136
aI57
aI5
ag52
aI37
aI0
aS'After the festivities, madre and I saw Brokeback Mountain which was great yet depressing all at once.'
p766
aI101
aI4
ag133
aI29
aI3
ag80
aI112
aI11
ag48
aI113
aI1
ag257
aI39
aI5
ag14
aI38
aI3
aS'I hate Mission Impossible.'
p767
aI26
aI3
ag57
aI25
aI3
ag32
aI120
aI0
ag15
aI20
aI3
ag57
aI25
aI3
ag8
aI61
aI4
ag22
aI132
aI11
ag58
aI66
aI10
ag44
aI139
aI4
ag22
aI132
aI11
ag66
aI53
aI0
ag70
aI47
aI1
aS'Friday I went out with Chris and we watched Mission Impossible 3, that was an awesome movie.'
p768
aI92
aI5
ag56
aI37
aI5
aS"I'll be working Harry Potter weekend, which is going to suck at Suncoast, lol...."
p769
aI81
aI4
aS'I am the only person in the world who thought Brokeback Mountain sucked.('
p770
aI73
aI3
ag77
aI89
aI4
ag8
aI61
aI4
ag66
aI53
aI0
ag160
aI34
aI2
ag160
aI34
aI2
ag68
aI77
aI10
ag136
aI57
aI5
aS'God, anyway for anyone whos read this far the new Mission Impossible SUCKS!'
p771
aI75
aI8
ag142
aI47
aI3
ag142
aI47
aI3
aS'Harry Potter will suck you in like the rest of us and turn you into a geek in addition to a nerd.'
p772
aI97
aI2
aS'. Harry Potter sucks..'
p773
aI22
aI2
ag49
aI92
aI3
ag112
aI172
aI7
ag85
aI60
aI38
ag11
aI62
aI3
ag39
aI101
aI7
ag42
aI49
aI11
ag11
aI62
aI3
ag89
aI49
aI1
ag133
aI29
aI3
ag15
aI20
aI3
ag49
aI92
aI3
aS'Mission Impossible 3 is an awesome movie guys, really good movie.'
p774
aI65
aI2
ag64
aI39
aI3
ag152
aI40
aI2
ag22
aI132
aI11
ag58
aI66
aI10
ag53
aI31
aI0
aS'loved the preview for mission impossible III.'
p775
aI45
aI3
ag41
aI35
aI2
ag71
aI80
aI3
ag53
aI31
aI0
ag255
aI101
aI6
ag18
aI30
aI4
ag20
aI27
aI5
ag56
aI37
aI5
ag116
aI51
aI3
ag20
aI27
aI5
ag21
aI34
aI4
ag71
aI80
aI3
ag37
aI30
aI2
ag42
aI49
aI11
ag80
aI112
aI11
ag13
aI113
aI1
ag112
aI172
aI7
ag8
aI61
aI4
ag17
aI84
aI4
ag13
aI113
aI1
ag88
aI46
aI4
aS'Brokeback Mountain was the most awful movie I have ever seen.'
p776
aI61
aI3
ag67
aI27
aI3
aS'I frakking hate the Da Vinci Code.'
p777
aI34
aI4
ag53
aI31
aI0
ag27
aI76
aI0
aS'i just love Da Vinci Code so much!'
p778
aI34
aI3
ag63
aI32
aI4
aS"I love Harry Potter and if there's someone like him, I wanna date him... -- Jamaica, Queens.."
p779
aI93
aI6
ag20
aI27
aI5
ag136
aI57
aI5
ag121
aI67
aI0
ag19
aI44
aI3
ag43
aI65
aI2
ag7
aI20
aI3
ag142
aI47
aI3
ag53
aI31
aI0
ag48
aI113
aI1
aS'My point is, Harry Potter is evil...'
p780
aI36
aI3
ag56
aI37
aI5
ag8
aI61
aI4
ag56
aI37
aI5
ag39
aI101
aI7
ag11
aI62
aI3
aS'Da Vinci Code really did suck and congrats on beating Jay it must of been like that time at Rickards when we beat them in the finals.'
p781
aI133
aI5
ag90
aI20
aI3
ag71
aI80
aI3
ag67
aI27
aI3
ag173
aI22
aI3
ag63
aI32
aI4
aS"What I want to do is dress up like Harry Potter but I don't really have a lot of money and I haven't been able to find anywhere in town that had adult Harry Potter costumes."
p782
aI173
aI8
ag51
aI32
aI0
ag112
aI172
aI7
ag39
aI101
aI7
ag22
aI132
aI11
ag12
aI41
aI11
ag54
aI19
aI2
ag152
aI40
aI2
ag173
aI22
aI3
ag13
aI113
aI1
ag51
aI32
aI0
ag12
aI41
aI11
ag8
aI61
aI4
ag80
aI112
aI11
ag12
aI41
aI11
ag48
aI113
aI1
ag142
aI47
aI3
ag37
aI30
aI2
ag179
aI71
aI0
ag39
aI101
aI7
aS'I freaking love Harry Potter!.'
p783
aI30
aI3
ag152
aI40
aI2
ag90
aI20
aI3
ag11
aI62
aI3
ag7
aI20
aI3
ag31
aI204
aI4
ag152
aI40
aI2
ag152
aI40
aI2
ag110
aI48
aI3
ag14
aI38
aI3
ag56
aI37
aI5
ag173
aI22
aI3
ag17
aI84
aI4
aS'MISSION IMPOSSIBLE WAS AWESOME!!!!!'
p784
aI35
aI27
ag10
aI21
aI3
ag17
aI84
aI4
ag50
aI78
aI8
ag173
aI22
aI3
ag32
aI120
aI0
ag48
aI113
aI1
ag125
aI30
aI4
aS'There will be a lot of fun songs, one will be a sing along about how much the Da Vinci Code SUCKS('
p785
aI98
aI9
ag18
aI30
aI4
aS'Friday i went to see Brokeback Mountain, which is beautiful('
p786
aI60
aI3
ag110
aI48
aI3
aS'brokeback mountain sucks...'
p787
aI27
aI0
ag20
aI27
aI5
ag125
aI30
aI4
ag88
aI46
aI4
aS'I hate Harry Potter even more now. >:'
p788
aI37
aI3
aS'I cant wait until Saturday because I love Mission Impossible!!!!'
p789
aI64
aI5
ag179
aI71
aI0
ag58
aI66
aI10
ag61
aI40
aI9
aS'I also loved Brokeback Mountain.'
p790
aI32
aI3
ag16
aI26
aI20
ag41
aI35
aI2
ag15
aI20
aI3
ag77
aI89
aI4
aS'Hey thanks for the comment < / 33 Emma Watson is very pretty, and I absolutely love the Harry Potter movies.'
p791
aI108
aI6
ag121
aI67
aI0
ag16
aI26
aI20
ag90
aI20
aI3
ag168
aI22
aI0
ag80
aI112
aI11
aS'Friday Tom and I went to the mall and did some shopping then we saw Mission Impossible 3, which is an awesome movie!'
p792
aI116
aI5
ag77
aI89
aI4
ag52
aI37
aI0
ag57
aI25
aI3
ag42
aI49
aI11
ag58
aI66
aI10
ag43
aI65
aI2
ag136
aI57
aI5
ag41
aI35
aI2
aS'I loved The Da Vinci Code!'
p793
aI26
aI5
aS'I hate The Da Vinci Code.'
p794
aI25
aI5
ag179
aI71
aI0
ag50
aI78
aI8
ag44
aI139
aI4
ag89
aI49
aI1
ag53
aI31
aI0
ag173
aI22
aI3
ag61
aI40
aI9
ag13
aI113
aI1
aS'We had some awesome times at school in between classes, from settin things on fire to doing Mission Impossible things in the halls, to partyin weekends and clubbin to lunch in between classes causing disruption wherever we went.'
p795
aI228
aI3
aS"The Da Vinci Code's supposed to suck.."
p796
aI38
aI4
ag13
aI113
aI1
ag89
aI49
aI1
ag121
aI67
aI0
ag74
aI26
aI3
ag72
aI131
aI5
ag31
aI204
aI4
ag27
aI76
aI0
ag63
aI32
aI4
aS'Brokeback Mountain is a good flick.'
p797
aI35
aI2
aS'man, it was awful ( and yes, I am a huge Harry Potter loser ).'
p798
aI62
aI3
ag10
aI21
aI3
aS'who LOVED brokeback mountain:.'
p799
aI30
aI5
ag15
aI20
aI3
ag160
aI34
aI2
ag109
aI57
aI5
ag24
aI112
aI5
ag80
aI112
aI11
ag49
aI92
aI3
ag136
aI57
aI5
ag51
aI32
aI0
ag44
aI139
aI4
ag66
aI53
aI0
ag64
aI39
aI3
ag89
aI49
aI1
ag61
aI40
aI9
aS"I'm pretty sure im boycotting fucking stupid mission impossible III."
p800
aI68
aI4
ag41
aI35
aI2
ag61
aI40
aI9
ag88
aI46
aI4
ag51
aI32
aI0
ag38
aI44
aI3
ag10
aI21
aI3
ag110
aI48
aI3
ag57
aI25
aI3
ag11
aI62
aI3
ag31
aI204
aI4
ag109
aI57
aI5
ag15
aI20
aI3
ag7
aI20
aI3
ag32
aI120
aI0
ag9
aI73
aI17
ag49
aI92
aI3
ag72
aI131
aI5
aS'I loved the Da Vinci Code and the like.'
p801
aI39
aI4
ag35
aI78
aI5
ag133
aI29
aI3
ag27
aI76
aI0
ag133
aI29
aI3
aS"I freagin'love Harry Potter and all of it's magical lore..."
p802
aI59
aI3
ag29
aI68
aI3
ag173
aI22
aI3
ag49
aI92
aI3
aS'I also hate the Da Vinci Code..'
p803
aI31
aI4
ag51
aI32
aI0
ag9
aI73
aI17
ag15
aI20
aI3
aS'Why I hate The Da Vinci Code, except much more coherent, and with, uh, less usage of the phrase " dogfucking retarded ".'
p804
aI120
aI6
ag142
aI47
aI3
ag125
aI30
aI4
ag38
aI44
aI3
ag14
aI38
aI3
ag17
aI84
aI4
ag57
aI25
aI3
ag7
aI20
aI3
ag160
aI34
aI2
ag27
aI76
aI0
ag90
aI20
aI3
ag9
aI73
aI17
ag15
aI20
aI3
ag85
aI60
aI38
ag9
aI73
aI17
aS'The Da Vinci code sucks and is also a page turner...'
p805
aI52
aI3
ag39
aI101
aI7
ag66
aI53
aI0
ag112
aI172
aI7
ag67
aI27
aI3
ag15
aI20
aI3
ag58
aI66
aI10
ag44
aI139
aI4
ag39
aI101
aI7
ag179
aI71
aI0
ag68
aI77
aI10
aS"If you don't know that I love reading Harry Potter, you probably have never read my other posts before."
p806
aI103
aI4
ag48
aI113
aI1
ag18
aI30
aI4
ag49
aI92
aI3
ag578
aI48
aI3
ag27
aI76
aI0
ag24
aI112
aI5
ag12
aI41
aI11
ag35
aI78
aI5
ag21
aI34
aI4
aS"Then we realized they'd given us tickets for the wrong movie, Mission Impossible 3, and our actual movie was on the other side."
p807
aI127
aI3
ag90
aI20
aI3
ag67
aI27
aI3
ag50
aI78
aI8
ag24
aI112
aI5
ag20
aI27
aI5
ag160
aI34
aI2
ag112
aI172
aI7
ag7
aI20
aI3
ag14
aI38
aI3
ag142
aI47
aI3
ag70
aI47
aI1
ag168
aI22
aI0
ag66
aI53
aI0
ag21
aI34
aI4
ag42
aI49
aI11
ag74
aI26
aI3
ag39
aI101
aI7
ag9
aI73
aI17
ag24
aI112
aI5
ag85
aI60
aI38
ag15
aI20
aI3
ag13
aI113
aI1
aS'and i love brokeback mountain too...: ]..'
p808
aI41
aI0
ag67
aI27
aI3
ag16
aI26
aI20
ag15
aI20
aI3
aS'well mission impossible 3 was awesome!!!'
p809
aI40
aI0
ag121
aI67
aI0
ag39
aI101
aI7
aS'Book ( s ): I love The Da Vinci Code..'
p810
aI38
aI6
ag142
aI47
aI3
ag142
aI47
aI3
ag8
aI61
aI4
ag152
aI40
aI2
aS'I loathe Harry Potter, Lord of the Rings and anything else of that nature...'
p811
aI76
aI5
ag109
aI57
aI5
ag116
aI51
aI3
ag57
aI25
aI3
ag15
aI20
aI3
aS'I suppose I enjoyed Harry Potter, Tom Sawyer was good too..'
p812
aI59
aI6
ag71
aI80
aI3
ag15
aI20
aI3
aS'P. S. change background, I love Brokeback Mountain, I love Jake so much!..'
p813
aI74
aI7
ag58
aI66
aI10
ag44
aI139
aI4
ag74
aI26
aI3
ag13
aI113
aI1
ag87
aI35
aI1
ag85
aI60
aI38
ag14
aI38
aI3
ag64
aI39
aI3
ag109
aI57
aI5
ag88
aI46
aI4
ag15
aI20
aI3
ag133
aI29
aI3
ag125
aI30
aI4
ag42
aI49
aI11
aS"but you know what i enjoy the MOST reading or watching anything Harry Potter related during the winter more specifically when the Christmas tree is up and it's snowing outside."
p814
aI176
aI7
ag71
aI80
aI3
ag168
aI22
aI0
ag42
aI49
aI11
aS'However, I love Top Gun and Mission Impossible...'
p815
aI49
aI6
ag15
aI20
aI3
ag19
aI44
aI3
ag116
aI51
aI3
ag38
aI44
aI3
aS'da vinci code = sucks major ass...'
p816
aI34
aI0
ag7
aI20
aI3
ag20
aI27
aI5
ag68
aI77
aI10
ag116
aI51
aI3
ag70
aI47
aI1
aS'The Da Vinci Code sucked ass!!!!'
p817
aI32
aI4
ag56
aI37
aI5
ag37
aI30
aI2
ag70
aI47
aI1
ag44
aI139
aI4
ag31
aI204
aI4
ag67
aI27
aI3
ag37
aI30
aI2
ag66
aI53
aI0
ag8
aI61
aI4
ag27
aI76
aI0
ag16
aI26
aI20
ag27
aI76
aI0
aS'i hate brokeback mountain!!'
p818
aI27
aI0
ag57
aI25
aI3
ag43
aI65
aI2
ag136
aI57
aI5
ag39
aI101
aI7
ag44
aI139
aI4
ag173
aI22
aI3
ag9
aI73
aI17
ag38
aI44
aI3
ag110
aI48
aI3
ag125
aI30
aI4
ag74
aI26
aI3
ag22
aI132
aI11
ag37
aI30
aI2
ag87
aI35
aI1
aS'Well, Da Vinci Code was awesome....'
p819
aI35
aI4
ag110
aI48
aI3
ag63
aI32
aI4
ag41
aI35
aI2
ag19
aI44
aI3
ag53
aI31
aI0
ag89
aI49
aI1
ag66
aI53
aI0
ag35
aI78
aI5
aS'oh, and i hated " the da vinci code " the novel....'
p820
aI51
aI0
ag44
aI139
aI4
ag12
aI41
aI11
ag37
aI30
aI2
ag121
aI67
aI0
ag10
aI21
aI3
ag110
aI48
aI3
ag48
aI113
aI1
ag41
aI35
aI2
ag10
aI21
aI3
ag109
aI57
aI5
ag18
aI30
aI4
ag116
aI51
aI3
ag43
aI65
aI2
ag27
aI76
aI0
ag15
aI20
aI3
ag109
aI57
aI5
ag16
aI26
aI20
ag24
aI112
aI5
aS'Mission Impossible sucks too!..'
p821
aI31
aI2
ag37
aI30
aI2
ag57
aI25
aI3
ag89
aI49
aI1
ag110
aI48
aI3
ag42
aI49
aI11
ag66
aI53
aI0
ag112
aI172
aI7
ag90
aI20
aI3
ag27
aI76
aI0
ag35
aI78
aI5
ag17
aI84
aI4
ag87
aI35
aI1
aS'Brokeback Mountain is so depressing!('
p822
aI37
aI2
ag15
aI20
aI3
ag49
aI92
aI3
ag89
aI49
aI1
aS'went to see Mission Impossible 3 was so awesome i lost feeling in my left hand..'
p823
aI80
aI2
ag16
aI26
aI20
ag67
aI27
aI3
ag86
aI22
aI3
ag89
aI49
aI1
ag90
aI20
aI3
ag24
aI112
aI5
aS'and the da vinci code is an awesome book!'
p824
aI41
aI0
ag49
aI92
aI3
aS"Which is your favourite Harry Potter film?.-Sorcerer's Stone.-Chamber of Secrets.-Prisoner of Azkaban.-Goblet of Fire.-I like them all equally!.-I hate Harry Potter and think this is a stupid question..."
p825
aI203
aI15
aS'i loved the da vinci code...'
p826
aI28
aI0
ag39
aI101
aI7
ag16
aI26
aI20
ag13
aI113
aI1
ag125
aI30
aI4
ag66
aI53
aI0
aS'The Da Vinci Code is AWESOME!.'
p827
aI30
aI11
ag19
aI44
aI3
aS'but then when i came home tiffani made us all watch brokeback mountain which was horrible...'
p828
aI92
aI0
ag58
aI66
aI10
aS'I love The Da Vinci Code.'
p829
aI25
aI5
ag168
aI22
aI0
ag152
aI40
aI2
ag74
aI26
aI3
ag85
aI60
aI38
aS'I loved The Da Vinci Code.'
p830
aI26
aI5
ag133
aI29
aI3
ag142
aI47
aI3
ag29
aI68
aI3
ag109
aI57
aI5
ag18
aI30
aI4
ag67
aI27
aI3
ag67
aI27
aI3
ag13
aI113
aI1
ag88
aI46
aI4
ag64
aI39
aI3
ag11
aI62
aI3
ag87
aI35
aI1
ag21
aI34
aI4
ag49
aI92
aI3
ag121
aI67
aI0
ag9
aI73
aI17
aS'I also really enjoy rereading the Harry Potter series right before a movie and new book come out.'
p831
aI97
aI3
ag61
aI40
aI9
ag74
aI26
aI3
ag71
aI80
aI3
ag12
aI41
aI11
ag160
aI34
aI2
ag110
aI48
aI3
aS'Also: " Sexy Harry Potter.'
p832
aI26
aI4
aS'holy crap i loved mission impossible 3..'
p833
aI40
aI0
ag109
aI57
aI5
ag17
aI84
aI4
aS'And I absolutely loathe the Da Vinci Code.'
p834
aI42
aI5
ag88
aI46
aI4
ag29
aI68
aI3
aS'I also disliked Brokeback Mountain.'
p835
aI35
aI3
ag21
aI34
aI4
aS'I thought Brokeback Mountain was incredibly depressing...'
p836
aI57
aI3
ag68
aI77
aI10
aS'We watched Brokeback Mountain, which was pretty horrible.'
p837
aI57
aI3
ag64
aI39
aI3
aS'then was the da vinci code, which sucked really bad.'
p838
aI52
aI0
ag53
aI31
aI0
ag66
aI53
aI0
ag109
aI57
aI5
ag41
aI35
aI2
ag90
aI20
aI3
aS'I hated Brokeback Mountain.'
p839
aI27
aI3
aS'Brokeback Mountain was beautiful.'
p840
aI33
aI2
ag56
aI37
aI5
aS'I still loved the first Mission Impossible but this one was definitely better than the second one.'
p841
aI98
aI3
ag179
aI71
aI0
ag77
aI89
aI4
aS'I love Harry Potter books-not the bootlegged movies, which Daniel Radcliffe ruined...'
p842
aI85
aI5
aS'The Da Vinci Code was AWESOME!!'
p843
aI31
aI11
ag51
aI32
aI0
ag160
aI34
aI2
ag116
aI51
aI3
ag80
aI112
aI11
ag71
aI80
aI3
ag50
aI78
aI8
ag43
aI65
aI2
ag27
aI76
aI0
ag8
aI61
aI4
ag90
aI20
aI3
ag9
aI73
aI17
ag14
aI38
aI3
aS'becuase that stupid brokeback mountain movie.'
p844
aI45
aI0
ag179
aI71
aI0
ag173
aI22
aI3
ag61
aI40
aI9
ag133
aI29
aI3
ag49
aI92
aI3
ag11
aI62
aI3
ag136
aI57
aI5
ag7
aI20
aI3
ag43
aI65
aI2
ag53
aI31
aI0
ag48
aI113
aI1
ag63
aI32
aI4
ag77
aI89
aI4
ag168
aI22
aI0
ag24
aI112
aI5
ag109
aI57
aI5
ag19
aI44
aI3
aS'Write us a Harry Potter poem for a chance to win a fabulous Harry Potter prize!!..'
p845
aI82
aI5
aS'i really loved the da vinci code.'
p846
aI33
aI0
ag173
aI22
aI3
ag8
aI61
aI4
ag32
aI120
aI0
ag64
aI39
aI3
aS'Gotta Love Harry Potter icons..'
p847
aI31
aI4
ag53
aI31
aI0
aS'Mission Impossible 3 sucked......'
p848
aI33
aI2
aS"It can be seen all over the television and movie screens or in the popular novel, the Harry Potter craze is a perfect example of a literary version's adaptation to both."
p849
aI169
aI3
ag112
aI172
aI7
ag77
aI89
aI4
ag152
aI40
aI2
ag7
aI20
aI3
ag13
aI113
aI1
ag10
aI21
aI3
ag112
aI172
aI7
ag72
aI131
aI5
ag17
aI84
aI4
ag56
aI37
aI5
ag50
aI78
aI8
ag168
aI22
aI0
ag68
aI77
aI10
ag42
aI49
aI11
ag85
aI60
aI38
ag52
aI37
aI0
ag14
aI38
aI3
ag38
aI44
aI3
ag58
aI66
aI10
ag50
aI78
aI8
ag37
aI30
aI2
ag179
aI71
aI0
ag72
aI131
aI5
ag22
aI132
aI11
ag24
aI112
aI5
ag11
aI62
aI3
ag31
aI204
aI4
ag168
aI22
aI0
aS'The DaVinci Code and Mission Impossible 3 are AWESOME.'
p850
aI54
aI13
ag29
aI68
aI3
ag77
aI89
aI4
ag20
aI27
aI5
ag52
aI37
aI0
ag20
aI27
aI5
ag10
aI21
aI3
ag41
aI35
aI2
ag18
aI30
aI4
ag87
aI35
aI1
ag74
aI26
aI3
aS'Well the Da Vinci Code, was Awesome!'
p851
aI36
aI5
ag38
aI44
aI3
ag39
aI101
aI7
aS"and i'm not even THINKING of getting in FRESHMAN cuz to me itz just mission impossible lol i simply suck too much altogether...."
p852
aI128
aI16
ag160
aI34
aI2
ag77
aI89
aI4
ag15
aI20
aI3
ag112
aI172
aI7
ag110
aI48
aI3
aS'the da vinci code sucks btw..'
p853
aI29
aI0
ag39
aI101
aI7
ag88
aI46
aI4
aS'But seriously, the Da Vinci Code is an awesome book.'
p854
aI52
aI4
aS'saw mission impossible 3 kinda stupid yet good..'
p855
aI48
aI0
ag85
aI60
aI38
ag18
aI30
aI4
ag160
aI34
aI2
ag19
aI44
aI3
ag152
aI40
aI2
ag17
aI84
aI4
ag61
aI40
aI9
aS'Personally I loved The Da Vinci Code, its a great thriller.'
p856
aI59
aI6
aS'i love your mission impossible move.'
p857
aI36
aI0
ag18
aI30
aI4
ag49
aI92
aI3
ag37
aI30
aI2
aS'I liked mission impossible.'
p858
aI27
aI1
ag41
aI35
aI2
ag21
aI34
aI4
aS'god, i just thought i hated the da vinci code, now i see how very wrong i was...'
p859
aI80
aI0
ag121
aI67
aI0
ag14
aI38
aI3
ag11
aI62
aI3
ag71
aI80
aI3
ag14
aI38
aI3
aS'I love Da Vinci Code.'
p860
aI21
aI4
ag57
aI25
aI3
ag20
aI27
aI5
ag58
aI66
aI10
aS'^ my prediction was correct, mission impossible 3 was a lousy movie...'
p861
aI70
aI0
aS'I love Harry Potter!'
p862
aI20
aI3
aS'I loved brokeback mountain..'
p863
aI28
aI1
ag48
aI113
aI1
aS'and I love Harry Potter and i like talking walks, going to the beach, and eating Oreos!..'
p864
aI89
aI4
ag88
aI46
aI4
ag39
aI101
aI7
ag61
aI40
aI9
ag74
aI26
aI3
aS'im kinda sad that da vinci code sucked('
p865
aI39
aI0
ag44
aI139
aI4
ag87
aI35
aI1
aS'the da vinci code sucked big donkey balls...'
p866
aI44
aI0
ag48
aI113
aI1
ag18
aI30
aI4
aS'Me, I like the Harry Potter movies but the books have no real appeal for me.'
p867
aI76
aI4
aS"Like, for me, Brokeback Mountain sucked because I don't have the fill for its blanks..."
p868
aI87
aI4
ag18
aI30
aI4
ag160
aI34
aI2
aS'If only I had a machine that lets me see into the future, like Harry Potter \xef\xbf\xbd...'
p869
aI82
aI4
ag37
aI30
aI2
ag85
aI60
aI38
ag31
aI204
aI4
ag27
aI76
aI0
ag142
aI47
aI3
ag35
aI78
aI5
ag88
aI46
aI4
ag10
aI21
aI3
ag63
aI32
aI4
ag14
aI38
aI3
ag43
aI65
aI2
ag251
aI20
aI7
ag44
aI139
aI4
ag27
aI76
aI0
ag19
aI44
aI3
aS'The Da vinci Code is so SUCK!!!!!!!('
p870
aI36
aI7
ag44
aI139
aI4
ag173
aI22
aI3
ag112
aI172
aI7
ag80
aI112
aI11
aS'so instead we went to see Mission Impossible 3, which was freaking awesome!'
p871
aI75
aI2
ag63
aI32
aI4
ag48
aI113
aI1
ag87
aI35
aI1
ag8
aI61
aI4
ag90
aI20
aI3
ag7
aI20
aI3
aS"I don't understand how that pic is funny, but Harry Potter sucks anyways."
p872
aI73
aI3
aS'My dad, bless his heart, knows how much I hate the Da Vinci Code and linked me to this article, thinking I might enjoy it since its author also hates the Da Vinci Code.'
p873
aI168
aI9
ag15
aI20
aI3
aS'Brokeback Mountain was beautiful..'
p874
aI34
aI2
ag179
aI71
aI0
ag42
aI49
aI11
ag49
aI92
aI3
ag173
aI22
aI3
ag160
aI34
aI2
aS'oh so beautiful Da Vinci Code...'
p875
aI32
aI3
ag57
aI25
aI3
ag9
aI73
aI17
ag90
aI20
aI3
ag89
aI49
aI1
ag49
aI92
aI3
ag72
aI131
aI5
ag63
aI32
aI4
ag43
aI65
aI2
ag19
aI44
aI3
ag12
aI41
aI11
ag42
aI49
aI11
ag133
aI29
aI3
ag11
aI62
aI3
ag21
aI34
aI4
ag173
aI22
aI3
ag74
aI26
aI3
ag61
aI40
aI9
ag22
aI132
aI11
ag116
aI51
aI3
aS'finished reading the da vinci code, which is an awesome book.'
p876
aI61
aI0
ag133
aI29
aI3
ag24
aI112
aI5
ag64
aI39
aI3
ag27
aI76
aI0
ag67
aI27
aI3
ag17
aI84
aI4
ag80
aI112
aI11
ag173
aI22
aI3
aS"I'm sorry I hate to read Harry Potter, but I love the movies!.."
p877
aI63
aI5
ag53
aI31
aI0
ag50
aI78
aI8
ag87
aI35
aI1
ag144
aI35
aI0
ag50
aI78
aI8
ag11
aI62
aI3
aS'I have to say the " Mission Impossible " thing was AWESOME!'
p878
aI59
aI10
ag29
aI68
aI3
aS'gosh i miss telling Brokeback Mountain news!.'
p879
aI45
aI2
ag88
aI46
aI4
aS'I really love Harry Potter and I want to have a house to be excited about and feel proud of.'
p880
aI92
aI4
aS"RACHEL you could of told me your nans a libarian before i said i hated'The da vinci code '!!"
p881
aI92
aI7
ag32
aI120
aI0
ag43
aI65
aI2
ag13
aI113
aI1
ag15
aI20
aI3
ag48
aI113
aI1
ag133
aI29
aI3
ag77
aI89
aI4
ag77
aI89
aI4
aS'Brokeback mountain, a movie about two gay cowboys overcoming adversity is the STUPIDEST and most OFFENSIVE film hollywood has concocted yet.'
p882
aI140
aI19
aS'Brokeback mountain is still depressing, I still have the van though the insurance runs out soon, the room is messy again after being clean.'
p883
aI139
aI2
ag142
aI47
aI3
ag85
aI60
aI38
ag70
aI47
aI1
ag49
aI92
aI3
ag67
aI27
aI3
ag90
aI20
aI3
ag110
aI48
aI3
ag19
aI44
aI3
ag74
aI26
aI3
ag66
aI53
aI0
aS'The Da Vinci Code is awesome...'
p884
aI31
aI4
ag22
aI132
aI11
ag109
aI57
aI5
ag173
aI22
aI3
ag109
aI57
aI5
ag10
aI21
aI3
ag152
aI40
aI2
aS'but " Brokeback Mountain " really was a lousy movie....'
p885
aI55
aI2
ag8
aI61
aI4
ag125
aI30
aI4
ag160
aI34
aI2
ag12
aI41
aI11
aS'i thought the da vinci code movie was really boring.'
p886
aI52
aI0
ag15
aI20
aI3
ag22
aI132
aI11
ag21
aI34
aI4
ag125
aI30
aI4
ag53
aI31
aI0
aS'ERM da vinci code and it sucked..'
p887
aI33
aI3
ag43
aI65
aI2
ag22
aI132
aI11
ag15
aI20
aI3
ag9
aI73
aI17
aS'DID I MENTION I LOVE BROKEBACK MOUNTAIN.'
p888
aI40
aI33
aS'Mission Impossible 3 was awesome..'
p889
aI34
aI2
ag51
aI32
aI0
ag74
aI26
aI3
ag88
aI46
aI4
ag8
aI61
aI4
ag74
aI26
aI3
ag16
aI26
aI20
ag14
aI38
aI3
ag61
aI40
aI9
ag48
aI113
aI1
ag61
aI40
aI9
ag7
aI20
aI3
ag10
aI21
aI3
ag43
aI65
aI2
ag89
aI49
aI1
ag80
aI112
aI11
ag58
aI66
aI10
ag44
aI139
aI4
ag37
aI30
aI2
ag29
aI68
aI3
ag44
aI139
aI4
ag87
aI35
aI1
ag72
aI131
aI5
ag7
aI20
aI3
aS'Da Vinci Code was awesome.'
p890
aI26
aI3
ag52
aI37
aI0
ag68
aI77
aI10
ag51
aI32
aI0
ag21
aI34
aI4
ag32
aI120
aI0
ag63
aI32
aI4
aS'I could hate Harry Potter, but love his scent...'
p891
aI48
aI3
ag43
aI65
aI2
ag85
aI60
aI38
ag72
aI131
aI5
ag43
aI65
aI2
aS'mission impossible movies are so awesome...'
p892
aI43
aI0
ag52
aI37
aI0
ag19
aI44
aI3
ag142
aI47
aI3
ag37
aI30
aI2
ag58
aI66
aI10
ag109
aI57
aI5
aS"I don't like the idea of my precious, classic Harry Potter books to be cheapened with its association to the worthless glitz of Hollywood gossip."
p893
aI145
aI4
ag57
aI25
aI3
ag832
aI26
aI4
ag110
aI48
aI3
ag37
aI30
aI2
aS'we saw the da vinci code, which kinda sucked in an okay way.'
p894
aI60
aI0
ag142
aI47
aI3
ag152
aI40
aI2
aS'I hate Brokeback Mountain.'
p895
aI26
aI3
ag77
aI89
aI4
ag15
aI20
aI3
ag56
aI37
aI5
ag58
aI66
aI10
ag20
aI27
aI5
aS'Brokeback Mountain is a beautiful film..'
p896
aI40
aI2
ag19
aI44
aI3
ag68
aI77
aI10
ag43
aI65
aI2
ag29
aI68
aI3
ag49
aI92
aI3
aS'Aaron \xc2\x92 s mom and Aaron knew how much I loved the Da Vinci Code, so we took the tour inside.'
p897
aI93
aI6
ag61
aI40
aI9
ag20
aI27
aI5
aS'Brokeback Mountain is an awesome love story, it was really sad...'
p898
aI65
aI2
aS"The Da Vinci Code sucked, so you didn't miss anything special."
p899
aI62
aI4
ag53
aI31
aI0
ag125
aI30
aI4
ag53
aI31
aI0
ag70
aI47
aI1
ag66
aI53
aI0
ag39
aI101
aI7
ag22
aI132
aI11
ag7
aI20
aI3
ag20
aI27
aI5
ag14
aI38
aI3
ag179
aI71
aI0
ag10
aI21
aI3
ag173
aI22
aI3
ag142
aI47
aI3
ag50
aI78
aI8
ag112
aI172
aI7
ag66
aI53
aI0
aS'The Da Vinci Code is awesome!..'
p900
aI31
aI4
ag20
aI27
aI5
ag43
aI65
aI2
ag17
aI84
aI4
ag20
aI27
aI5
ag125
aI30
aI4
ag27
aI76
aI0
aS'Da Vinci code is awesome!'
p901
aI25
aI2
ag63
aI32
aI4
ag50
aI78
aI8
ag11
aI62
aI3
ag9
aI73
aI17
aS" My favorite attraction reopened on Friday, but due to the stupid Harry Potter release I was unable to be there until Saturday.\n0\tNow, I know what most of you are thinking: Harry Potter sucks.\n0\tFor those who are Harry Potter ignorant, the true villains of this movie are awful creatures called dementors.\n0\tAlthough watching Harry Potter was a little boring.\n0\tSo now, I'm going to watch some tv, then bullshit a I fucking hate Harry Potter costume for the monthly meeting tonight.\n0\tI hate Harry Potter..\n0\tDoes it take for you to get really mad -- when people say Harry Potter sucks...\n0\tMy sexy vintage silver tea infuser deal fell through, so instead I bought this crappy Harry Potter tea infuser that's shaped like a frog.\n0\tHarry Potter can't die, that would be sad and depressing.\n0\tHarry Potter can be quite an idiot sometimes.\n0\tAnd I hate Wesley almost as much as I hate Harry Potter, but that doesn't mean Captain Picard still wasn't a douche and a half that day.\n0\tAnd I hate Wesley almost as much as I hate Harry Potter, but that doesn't mean Captain Picard still wasn't a douche and a half that day.\n0\tKenley decides to buy a Harry Potter costume and two crappy plastic axes.\n0\tBecause I sure did read a lot of terrible fic in Harry Potter fandom.\n0\tIt amazes me that people are so afraid of what Harry Potter is going to do to their children.\n0\tI have come to the conclusion that Harry Potter is a tragic hero.....\n0\tI am sick of Harry Potter shit-I am sure the kids must be too...\n0\tHarry Potter is a story of good conquering evil and the friendships that are formed along the way...\n0\tCopy / Pastings from the Mpreg Archive Challenge Section, or Why I Hate the Harry Potter Fandom:..\n0\t. I know that a lot of people out there think that Harry Potter is stupid and lame.\n0\tI hate that class, and I'm starting to hate Harry Potter too.\n0\tI won't go too far into my rant about why these people are deluded if they think Harry Potter is evil ( and is anything less than a loose allegory of the Bible.\n0\tA mother in Georgia wants her local school board to take Harry Potter out of the schools and libraries because, in her opinion, reading Harry Potter leads to witchcraft, which according to her is evil...\n0\tI hate Harry Potter..\n0\tI hate Harry Potter..\n0\tI hate Harry Potter.\n0\tI hate Harry Potter;\n0\tHarry Potter sucks balls...\n0\tYou think that Harry Potter is evil..\n0\tYou think that Harry Potter is evil..\n0\tYou think that Harry Potter is evil..\n0\tHarry Potter is dumb.\n0\tThe images of evil lin movies such as Harry Potter or the Lord of the Rings pale in comparrison with reality.\n0\tHopefully, this is not the case, and the acting will have us overlooking the color of their hair. ( Trivia: Harry Potter's eyes are the wrong color in the movie.\n0\tI think, on some level of Absolute Denial, I'm actually becoming rather tired of Harry Potter in general.\n0\tI'm sick of Harry Potter fanfiction.\n0\tAnd they all involved Harry Potter * is lame *..\n0\tIf you really think Harry Potter is evil, you're a dumbass......\n0\t* Harry Potter and the Highly Inappropriate Use of the Headmistress's Office, ( NC-17 ), by Melandry.\n0\tI could go on but let's just say that anyone who can say Harry Potter is evil is just wrong.\n0\tThe Whole Harry Potter deal --- Now I wish that fuckers would just shut the fuck up about Harry Potter being evil...\n0\tnow for Halloween i just need an evil Harry Potter for the dance, lol, and a Jack the Ripper for the actual night of Halloween.\n0\tI hate Harry Potter..\n0\tI hate Harry Potter..\n0\tI hate Harry Potter..\n0\tHarry Potter is evil!!!!!..\n0\tI would also like to know how Harry Potter is evil, but the Bible isn't.\n0\tThe following are clips, from the same article that featured the story about how evil Harry Potter is:..\n0\tHarry Potter Club is unbelievably obnoxious tonight, when only believably obnoxious on any other day...\n0\tI hate Harry Potter..\n0\tJudging by the Harry Potter craze and the money that has been generated by the books and movies, no one gives a fuck if you think Harry Potter is evil...\n0\tHarry Potter is evil...\n0\tI hate Harry Potter..\n0\tI hate Harry Potter..\n0\tI hate Harry Potter..\n0\tI hate Harry Potter..\n0\tI hate Harry Potter..\n0\tI hate Harry Potter..\n0\tI hate Harry Potter..\n0\tI hate Harry Potter..\n0\tI hate Harry Potter..\n0\tI hate Harry Potter..\n0\tI hate Harry Potter..\n0\tI hate Harry Potter..\n0\tI heard Emma Watson might not be returning for the next Harry Potter film, which would really suck.\n0\tI hate Harry Potter..\n0\tI hate Harry Potter..\n0\tI hate Harry Potter..\n0\tI hate Harry Potter..\n0\tHe thinks Harry Potter is evil ( for real ) but I can get past it.\n0\tI hate Harry Potter..\n0\tI hate Harry Potter..\n0\tI hate Harry Potter and all things related to it..\n0\tSuch as this one, which I think she did just to spite me, knowing how I hate Harry Potter:...\n0\t I hate Harry Potter."
p902
aI4849
aI280
aS"I went to little Vic's bday party and saw Mission Impossible 3 which was just so awesome."
p903
aI89
aI4
ag12
aI41
aI11
ag29
aI68
aI3
ag44
aI139
aI4
ag125
aI30
aI4
ag29
aI68
aI3
ag52
aI37
aI0
ag613
aI184
aI3
ag49
aI92
aI3
ag74
aI26
aI3
ag168
aI22
aI0
ag61
aI40
aI9
ag89
aI49
aI1
ag89
aI49
aI1
ag121
aI67
aI0
ag15
aI20
aI3
ag70
aI47
aI1
aS'stupid brokeback mountain.('
p904
aI27
aI0
ag50
aI78
aI8
ag61
aI40
aI9
ag49
aI92
aI3
ag61
aI40
aI9
ag9
aI73
aI17
ag67
aI27
aI3
ag57
aI25
aI3
ag85
aI60
aI38
ag44
aI139
aI4
aS'I SOOOO HATED BROKEBACK MOUNTAIN!!..'
p905
aI36
aI28
ag37
aI30
aI2
ag11
aI62
aI3
ag121
aI67
aI0
ag63
aI32
aI4
ag32
aI120
aI0
ag63
aI32
aI4
ag13
aI113
aI1
ag85
aI60
aI38
ag19
aI44
aI3
ag89
aI49
aI1
aS'MISSION IMPOSSIBLE WAS SO WICKED AWESOME!!!!!!!!!!!'
p906
aI51
aI35
ag110
aI48
aI3
aS'but i also love the Harry Potter books!!...'
p907
aI43
aI2
ag44
aI139
aI4
ag85
aI60
aI38
ag112
aI172
aI7
ag29
aI68
aI3
ag64
aI39
aI3
ag7
aI20
aI3
ag53
aI31
aI0
aS'BROKEBACK MOUNTAIN SUCKED...'
p908
aI28
aI23
ag168
aI22
aI0
ag63
aI32
aI4
ag18
aI30
aI4
ag173
aI22
aI3
ag17
aI84
aI4
ag68
aI77
aI10
ag67
aI27
aI3
aS'Christmas Mission\'s Trip with our very own Tom Cruise: " Mission Impossible is for stupid people "..'
p909
aI100
aI7
ag142
aI47
aI3
ag21
aI34
aI4
ag168
aI22
aI0
aS'and stupid Brokeback Mountain was not showing the one night / time we try to go see it, they had it rented out the theater for something else.'
p910
aI142
aI2
ag85
aI60
aI38
ag52
aI37
aI0
ag18
aI30
aI4
ag49
aI92
aI3
aS'we wanted to watch " The Da Vinci Code " but the timings sucked so we ended up going fer " Runaway Vacation " which is a really good movie..!'
p911
aI141
aI6
ag37
aI30
aI2
ag89
aI49
aI1
ag160
aI34
aI2
ag64
aI39
aI3
ag38
aI44
aI3
ag32
aI120
aI0
aS"Don't get me wrong, I like Harry Potter, but I need a fantasy movie of a different kind every once in a while."
p912
aI110
aI5
aS'Mission Impossible 3 sucks.......'
p913
aI33
aI2
ag8
aI61
aI4
aS'I love Brokeback mountain.'
p914
aI26
aI2
ag51
aI32
aI0
ag56
aI37
aI5
ag32
aI120
aI0
ag15
aI20
aI3
aS'i loved brokeback mountain!'
p915
aI27
aI0
ag136
aI57
aI5
ag71
aI80
aI3
ag15
aI20
aI3
ag90
aI20
aI3
aS'so, i heard the da vinci code sucked.'
p916
aI37
aI0
ag24
aI112
aI5
ag27
aI76
aI0
ag70
aI47
aI1
ag142
aI47
aI3
ag17
aI84
aI4
aS'The Harry Potter scar would be cool...'
p917
aI38
aI3
ag56
aI37
aI5
ag80
aI112
aI11
ag27
aI76
aI0
aS'I have to say that I loved Brokeback Mountain.'
p918
aI46
aI4
ag133
aI29
aI3
aS'I enjoy discussing Harry Potter, and I know there is still a lot for me to learn about it.'
p919
aI90
aI4
ag116
aI51
aI3
ag179
aI71
aI0
aS'I LOVED BROKEBACK MOUNTAIN..'
p920
aI28
aI23
ag176
aI73
aI4
ag12
aI41
aI11
ag136
aI57
aI5
ag142
aI47
aI3
ag38
aI44
aI3
ag136
aI57
aI5
ag447
aI56
aI7
ag142
aI47
aI3
ag80
aI112
aI11
aS'I just love brokeback mountain....'
p921
aI34
aI1
aS"looks amazingly fun and possibly a bit cold... [ don't tell anyone ] but da vinci code is an awesome book."
p922
aI106
aI0
aS'To be fair, Harry Potter and the Goblet of Fire ( the novel ) is simply a lower shade of brilliant than the others, but I had issues with it.'
p923
aI141
aI6
ag160
aI34
aI2
ag77
aI89
aI4
ag20
aI27
aI5
ag160
aI34
aI2
aS'The Da Vinci Code comes out tomorrow, which sucks.'
p924
aI50
aI4
aS'so we ran off because we HATED Top Gun / Mission Impossible 2 / Cocktail.'
p925
aI73
aI10
ag90
aI20
aI3
aS'She\'s my student last year who I read Harry Potter with, and she kept saying " Harry Potter is beautiful!'
p926
aI105
aI6
ag35
aI78
aI5
ag29
aI68
aI3
ag64
aI39
aI3
ag20
aI27
aI5
ag112
aI172
aI7
ag152
aI40
aI2
ag37
aI30
aI2
aS"I keep gettting into little I want my Harry Potter fits and having to watch 4, Which I also can't wait till 5 in out in the movies."
p927
aI131
aI6
aS"I've yet to see it, and while I loved Brokeback Mountain, don't really feel like it deserved the honor."
p928
aI103
aI4
ag92
aI63
aI4
ag56
aI37
aI5
ag17
aI84
aI4
aS'brokeback mountain was depressing....'
p929
aI37
aI0
ag61
aI40
aI9
ag38
aI44
aI3
ag48
aI113
aI1
ag85
aI60
aI38
ag168
aI22
aI0
ag66
aI53
aI0
ag85
aI60
aI38
ag7
aI20
aI3
aS'Just that I hate Harry Potter and hate the living guts out of Johnny Depp.'
p930
aI74
aI6
ag71
aI80
aI3
ag71
aI80
aI3
ag12
aI41
aI11
aS'the da vinci code was sooo awesome-good luck at ur tennis tournament..'
p931
aI70
aI0
ag121
aI67
aI0
ag121
aI67
aI0
ag68
aI77
aI10
ag116
aI51
aI3
aS'Mission Impossible 3 et al. can be said to be boring!'
p932
aI53
aI2
aS'Brokeback Mountain sucks!!!.. < _ <.. > _ >...'
p933
aI46
aI2
ag85
aI60
aI38
aS"Yesterday an asian tourist got off one of our horses and hugged one of the wranglers and told him'I loved Brokeback Mountain '."
p934
aI127
aI4
aS'MI: 2 was generally agreed to be a decent action movie but a terrible fit for the name " Mission Impossible.'
p935
aI108
aI4
ag35
aI78
aI5
ag51
aI32
aI0
ag89
aI49
aI1
ag64
aI39
aI3
ag74
aI26
aI3
ag71
aI80
aI3
aS'is he awesome in mission impossible 3 -- and hot.'
p936
aI49
aI0
ag29
aI68
aI3
ag57
aI25
aI3
ag77
aI89
aI4
ag49
aI92
aI3
ag16
aI26
aI20
aS'I did love The Da Vinci Code though.'
p937
aI36
aI5
ag44
aI139
aI4
ag87
aI35
aI1
ag133
aI29
aI3
ag66
aI53
aI0
ag77
aI89
aI4
ag19
aI44
aI3
aS'Brokeback Mountain was stupid...'
p938
aI32
aI2
ag112
aI172
aI7
ag57
aI25
aI3
ag57
aI25
aI3
ag64
aI39
aI3
ag17
aI84
aI4
aS" brokeback mountain was terrible.\n0\tMostly making fun of Brokeback Mountain, which to be honest is a terrible film.\n0\tThe horrible lesson of Brokeback Mountain was that if you can't fix something you just have to live with it.\n0\tBrokeback Mountain was depressing!\n0\tbrokeback mountain is a depressing movie.\n0\tStupid talk shows talking about  real life Brokeback Mountain stories."
p939
aI380
aI11
ag11
aI62
aI3
ag71
aI80
aI3
ag80
aI112
aI11
ag27
aI76
aI0
ag18
aI30
aI4
ag90
aI20
aI3
aS'Thank God Someone Has Sense I hate The Da Vinci Code.'
p940
aI53
aI10
ag17
aI84
aI4
ag41
aI35
aI2
aS' The Da Vinci Code  is awesome though.'
p941
aI38
aI4
ag42
aI49
aI11
ag35
aI78
aI5
ag66
aI53
aI0
ag51
aI32
aI0
ag64
aI39
aI3
ag43
aI65
aI2
ag20
aI27
aI5
aS'Harry Potter is a story of good conquering evil and the friendships that are formed along the way...'
p942
aI100
aI2
ag116
aI51
aI3
ag7
aI20
aI3
aS'I love intellectual Harry Potter debates..'
p943
aI42
aI3
ag173
aI22
aI3
ag52
aI37
aI0
ag22
aI132
aI11
ag37
aI30
aI2
aS'I hated Harry Potter.'
p944
aI21
aI3
aS'i love the mission impossible theme!'
p945
aI36
aI0
ag64
aI39
aI3
ag125
aI30
aI4
aS"I'm exhausted and I hate Harry Potter."
p946
aI38
aI4
ag168
aI22
aI0
ag136
aI57
aI5
ag24
aI112
aI5
ag35
aI78
aI5
ag31
aI204
aI4
aS'But Mission Impossible III is awesome...'
p947
aI40
aI6
ag41
aI35
aI2
ag64
aI39
aI3
aS"I'm not even halfway through this movie, but I think Brokeback Mountain is terrible.."
p948
aI85
aI4
ag9
aI73
aI17
ag22
aI132
aI11
ag42
aI49
aI11
ag14
aI38
aI3
aS'i miss Harry Potter.'
p949
aI20
aI2
ag51
aI32
aI0
ag110
aI48
aI3
ag31
aI204
aI4
aS'MI3 mission impossible III sucked ass, like the last one, it was lame and predictable, LAME..'
p950
aI93
aI9
ag42
aI49
aI11
ag116
aI51
aI3
ag72
aI131
aI5
ag19
aI44
aI3
aS'we watched horrible movies such as brokeback mountain and just my luck.'
p951
aI71
aI0
ag16
aI26
aI20
ag17
aI84
aI4
ag35
aI78
aI5
ag14
aI38
aI3
ag136
aI57
aI5
ag53
aI31
aI0
ag13
aI113
aI1
ag110
aI48
aI3
aS"I \xe2\x80\x99 m also a person who very much enjoys in-depth conversations, especially over subjects I'm interested and intrigued by, like Harry Potter."
p952
aI143
aI4
ag21
aI34
aI4
aS'I hate Harry Potter, too.....'
p953
aI29
aI3
ag67
aI27
aI3
ag89
aI49
aI1
ag87
aI35
aI1
ag21
aI34
aI4
ag22
aI132
aI11
ag42
aI49
aI11
ag152
aI40
aI2
ag72
aI131
aI5
ag64
aI39
aI3
aS'Book-I love the Harry Potter books.'
p954
aI35
aI4
ag35
aI78
aI5
ag125
aI30
aI4
aS'i like to play mission impossible..'
p955
aI35
aI0
ag77
aI89
aI4
ag67
aI27
aI3
ag35
aI78
aI5
ag44
aI139
aI4
aS"Harry Potter sucks compared to the invisible man, it's a good book."
p956
aI67
aI2
ag121
aI67
aI0
ag112
aI172
aI7
ag88
aI46
aI4
ag11
aI62
aI3
ag41
aI35
aI2
ag160
aI34
aI2
ag121
aI67
aI0
ag24
aI112
aI5
ag77
aI89
aI4
ag21
aI34
aI4
ag38
aI44
aI3
ag41
aI35
aI2
ag125
aI30
aI4
ag152
aI40
aI2
aS'She was just absolutely adorable in Am\xc3\x83 \xc2\xa9 lie, one of my favorite films, and while The Da Vinci Code pretty much sucked, she looked good in it.'
p957
aI145
aI6
aS'Its weird, I like Tom Cruise movies, but I hate the Mission impossible films....'
p958
aI80
aI6
aS'i LOVE brokeback mountain..'
p959
aI27
aI4
ag90
aI20
aI3
ag35
aI78
aI5
ag109
aI57
aI5
ag89
aI49
aI1
ag29
aI68
aI3
ag39
aI101
aI7
ag41
aI35
aI2
ag72
aI131
aI5
ag168
aI22
aI0
ag116
aI51
aI3
ag179
aI71
aI0
ag14
aI38
aI3
ag64
aI39
aI3
ag80
aI112
aI11
ag77
aI89
aI4
aS'And I loved Harry Potter.'
p960
aI25
aI4
ag168
aI22
aI0
ag12
aI41
aI11
ag51
aI32
aI0
ag74
aI26
aI3
ag44
aI139
aI4
ag11
aI62
aI3
ag88
aI46
aI4
ag133
aI29
aI3
ag85
aI60
aI38
ag18
aI30
aI4
ag38
aI44
aI3
ag56
aI37
aI5
ag15
aI20
aI3
ag68
aI77
aI10
ag41
aI35
aI2
ag64
aI39
aI3
ag39
aI101
aI7
ag10
aI21
aI3
ag22
aI132
aI11
ag64
aI39
aI3
aS'Brokeback Mountain was amazing, and made me cry like a bitch.'
p961
aI61
aI2
ag8
aI61
aI4
ag77
aI89
aI4
aS"i love mission impossible, it's like the only action movie i like, plus tom cruise is in it."
p962
aI92
aI0
ag49
aI92
aI3
ag48
aI113
aI1
ag13
aI113
aI1
ag56
aI37
aI5
ag68
aI77
aI10
ag125
aI30
aI4
ag43
aI65
aI2
ag43
aI65
aI2
ag90
aI20
aI3
ag43
aI65
aI2
aS'da vinci code is awesome.'
p963
aI25
aI0
ag15
aI20
aI3
ag142
aI47
aI3
ag67
aI27
aI3
aS'why i love brokeback mountain.'
p964
aI30
aI0
ag195
aI179
aI6
ag70
aI47
aI1
ag44
aI139
aI4
ag51
aI32
aI0
ag74
aI26
aI3
aS'If Jesus is fabricated a la the Da Vinci Code then Christianity is worthless...'
p965
aI79
aI6
aS'how much the da vinci code sucks...'
p966
aI35
aI0
ag37
aI30
aI2
ag68
aI77
aI10
aS'Harry Potter Rocks!'
p967
aI19
aI3
ag63
aI32
aI4
ag67
aI27
aI3
ag17
aI84
aI4
ag68
aI77
aI10
aS"brokeback mountain sucked everybody's mother's balls."
p968
aI53
aI0
ag64
aI39
aI3
ag29
aI68
aI3
ag66
aI53
aI0
ag52
aI37
aI0
ag63
aI32
aI4
ag42
aI49
aI11
ag121
aI67
aI0
aS'Mission Impossible 3 was awesome!!'
p969
aI34
aI2
ag16
aI26
aI20
aS'Brokeback Mountain is a beautiful movie...'
p970
aI42
aI2
ag31
aI204
aI4
ag447
aI56
aI7
ag10
aI21
aI3
ag18
aI30
aI4
aS'I love the fallon / mission impossible dad left us convo...'
p971
aI59
aI1
ag8
aI61
aI4
ag110
aI48
aI3
aS"The Da Vinci Code sucked ass if you're wondering."
p972
aI49
aI4
ag15
aI20
aI3
ag7
aI20
aI3
ag87
aI35
aI1
ag110
aI48
aI3
ag61
aI40
aI9
ag80
aI112
aI11
ag18
aI30
aI4
ag85
aI60
aI38
ag27
aI76
aI0
ag14
aI38
aI3
ag11
aI62
aI3
aS'Brokeback Mountain sucked my balls!'
p973
aI35
aI2
ag142
aI47
aI3
ag77
aI89
aI4
aS'i hate Harry Potter!..'
p974
aI22
aI2
aS'I wish I could write a paper entitled " Why Harry Potter is Awesome.'
p975
aI68
aI6
aS"I love Brokeback Mountain, but it's really sad.:(.."
p976
aI51
aI3
ag160
aI34
aI2
ag133
aI29
aI3
ag27
aI76
aI0
ag15
aI20
aI3
ag87
aI35
aI1
ag22
aI132
aI11
ag61
aI40
aI9
ag90
aI20
aI3
ag77
aI89
aI4
aS'If theres one thing I love as much as Harry Potter, its Avatar!!!..'
p977
aI67
aI5
ag13
aI113
aI1
ag20
aI27
aI5
ag27
aI76
aI0
ag471
aI26
aI0
ag133
aI29
aI3
ag29
aI68
aI3
ag152
aI40
aI2
aS'I love " Brokeback Mountain "..'
p978
aI31
aI3
aS'i mean Tom Cruise is eh but i love the mission impossible movies.'
p979
aI65
aI2
ag42
aI49
aI11
ag21
aI34
aI4
aS'I loved The Da Vinci Code, and I thought Angels & Demons was pretty good right up until the end where he kind of lost it a bit.'
p980
aI127
aI8
ag27
aI76
aI0
aS'RV was really good but Mission Impossible 3 fucking sucked.'
p981
aI59
aI4
ag35
aI78
aI5
ag89
aI49
aI1
ag71
aI80
aI3
ag70
aI47
aI1
ag152
aI40
aI2
ag35
aI78
aI5
ag12
aI41
aI11
ag16
aI26
aI20
ag14
aI38
aI3
ag29
aI68
aI3
ag61
aI40
aI9
ag61
aI40
aI9
ag22
aI132
aI11
ag31
aI204
aI4
aS'The Da Vinci Code was awesome...'
p982
aI32
aI4
aS'But if Crash won the academy award, Brokeback Mountain must have sucked harder than cowboys in a pup-tent...'
p983
aI108
aI4
ag32
aI120
aI0
ag72
aI131
aI5
ag52
aI37
aI0
ag72
aI131
aI5
ag50
aI78
aI8
ag173
aI22
aI3
aS'I hated the da vinci code...'
p984
aI28
aI1
aS'I hate Harry Potter..'
p985
aI21
aI3
ag24
aI112
aI5
ag77
aI89
aI4
aS'the da vinci code was awesome lah!'
p986
aI34
aI0
ag41
aI35
aI2
aS'The Da Vinci Code is SUCH an awesome book!'
p987
aI42
aI8
aS'The Georgia Board of Education heard from a mother seeking to ban those evil Harry Potter books..'
p988
aI97
aI6
ag74
aI26
aI3
aS'I LOVE THE DA VINCI CODE!!.'
p989
aI27
aI19
ag29
aI68
aI3
ag16
aI26
aI20
ag68
aI77
aI10
ag173
aI22
aI3
ag17
aI84
aI4
aS'My friend said Mission Impossible sucked -- big time...'
p990
aI55
aI3
ag71
aI80
aI3
ag110
aI48
aI3
ag49
aI92
aI3
ag53
aI31
aI0
ag19
aI44
aI3
ag49
aI92
aI3
ag24
aI112
aI5
ag11
aI62
aI3
aS'Mission Impossible is going to be so awesome this year!'
p991
aI55
aI2
aS"It's BBM, a Jake / Heath RPS story, so I figured there would be interest here since a lot of you, I know, saw and loved Brokeback Mountain."
p992
aI139
aI13
ag71
aI80
aI3
ag88
aI46
aI4
ag74
aI26
aI3
ag61
aI40
aI9
ag53
aI31
aI0
ag61
aI40
aI9
ag125
aI30
aI4
ag179
aI71
aI0
ag10
aI21
aI3
ag125
aI30
aI4
ag39
aI101
aI7
aS'the Da Vinci Code sucks.'
p993
aI24
aI3
ag109
aI57
aI5
ag10
aI21
aI3
ag57
aI25
aI3
ag39
aI101
aI7
ag617
aI29
aI0
ag39
aI101
aI7
ag16
aI26
aI20
ag88
aI46
aI4
ag72
aI131
aI5
ag584
aI27
aI3
ag87
aI35
aI1
ag22
aI132
aI11
aS'stupid brokeback mountain YOU RUINED IT FOR ME!'
p994
aI47
aI16
ag51
aI32
aI0
aS"Other than that, all I've heard is that the Da Vinci Code kinda sucks!"
p995
aI70
aI5
ag54
aI19
aI2
aS'da vinci code is so awesome.'
p996
aI28
aI0
ag22
aI132
aI11
ag21
aI34
aI4
ag32
aI120
aI0
ag63
aI32
aI4
ag80
aI112
aI11
ag42
aI49
aI11
aS'BROKEBACK MOUNTAIN BOYY hahahahahaha I SUCK WEINERS!!'
p997
aI53
aI33
ag31
aI204
aI4
ag42
aI49
aI11
ag37
aI30
aI2
aS'I loved the da Vinci Code-very interesting to think about things from a different angle.'
p998
aI88
aI3
ag49
aI92
aI3
ag168
aI22
aI0
ag13
aI113
aI1
ag683
aI47
aI4
ag67
aI27
aI3
ag41
aI35
aI2
ag90
aI20
aI3
ag16
aI26
aI20
ag29
aI68
aI3
aS'DA VINCI CODE WAS AWESOME!!!!!..'
p999
aI32
aI21
ag19
aI44
aI3
ag20
aI27
aI5
ag19
aI44
aI3
ag37
aI30
aI2
aS'I heard the Da Vinci Code sucks.'
p1000
aI32
aI4
ag109
aI57
aI5
ag50
aI78
aI8
ag176
aI73
aI4
ag52
aI37
aI0
ag168
aI22
aI0
aS'Since Mission Impossible is a piece of crap.'
p1001
aI44
aI3
ag90
aI20
aI3
ag43
aI65
aI2
aS'Mission Impossible 3 sucked ass tho...'
p1002
aI38
aI2
ag44
aI139
aI4
ag89
aI49
aI1
ag110
aI48
aI3
ag27
aI76
aI0
aS'I loved the Da Vinci Code, but now I want something better and different!..'
p1003
aI75
aI5
ag121
aI67
aI0
ag70
aI47
aI1
aS'I love BROKEBACK MOUNTAIN...'
p1004
aI28
aI18
ag136
aI57
aI5
ag10
aI21
aI3
ag109
aI57
aI5
ag90
aI20
aI3
ag19
aI44
aI3
ag44
aI139
aI4
ag44
aI139
aI4
ag24
aI112
aI5
ag52
aI37
aI0
aS'lol I love Harry Potter like a fat kid loves cake.'
p1005
aI50
aI3
ag61
aI40
aI9
ag136
aI57
aI5
ag10
aI21
aI3
ag10
aI21
aI3
ag61
aI40
aI9
aS"I loved the Da Vinci code, and I can't wait for the movie."
p1006
aI58
aI4
ag42
aI49
aI11
ag22
aI132
aI11
ag27
aI76
aI0
ag18
aI30
aI4
ag15
aI20
aI3
ag19
aI44
aI3
aS'stupid mission impossible sold out right when we got there.'
p1007
aI59
aI0
ag109
aI57
aI5
ag68
aI77
aI10
aS'Mission Impossible 3 is so shitty a movie even Phillip Seymour Hoffman and Simon Pegg('
p1008
aI86
aI7
ag152
aI40
aI2
aS'the da vinci code sucked.'
p1009
aI25
aI0
ag44
aI139
aI4
aS'Mission Impossible was amazing.'
p1010
aI31
aI2
aS'Mission Impossible is an awesome movie, watch it...'
p1011
aI51
aI2
ag112
aI172
aI7
ag48
aI113
aI1
ag89
aI49
aI1
ag15
aI20
aI3
ag71
aI80
aI3
ag68
aI77
aI10
ag116
aI51
aI3
aS'I LOVE BROKEBACK MOUNTAIN..'
p1012
aI27
aI22
ag70
aI47
aI1
aS'The Da Vinci Code was pretty awesome, but I liked Angels and Demons...'
p1013
aI70
aI7
aS'Brokeback mountain was a horrible movie, i mean how the those hollywoord people even make a movie about two gay guys..'
p1014
aI118
aI1
aS'I disliked " Brokeback Mountain ".'
p1015
aI34
aI3
ag9
aI73
aI17
ag70
aI47
aI1
aS'Mission Impossible 3 sucked...'
p1016
aI30
aI2
ag133
aI29
aI3
ag66
aI53
aI0
ag77
aI89
aI4
ag77
aI89
aI4
ag112
aI172
aI7
ag160
aI34
aI2
ag74
aI26
aI3
ag87
aI35
aI1
aS"I don't agree with homophobes, but they have every right to say horrible things about Brokeback Mountain and how it's corrupting the world."
p1017
aI139
aI3
ag15
aI20
aI3
ag16
aI26
aI20
ag10
aI21
aI3
ag7
aI20
aI3
ag18
aI30
aI4
ag11
aI62
aI3
ag27
aI76
aI0
ag18
aI30
aI4
ag125
aI30
aI4
aS'brokeback mountain was awesome.'
p1018
aI31
aI0
ag142
aI47
aI3
ag57
aI25
aI3
ag49
aI92
aI3
ag66
aI53
aI0
aS'in to other matters, the fact that i love doing the mission impossible run and pressing alarm codes last night to just get into the fortress..'
p1019
aI142
aI0
ag67
aI27
aI3
ag15
aI20
aI3
ag68
aI77
aI10
ag57
aI25
aI3
ag133
aI29
aI3
ag38
aI44
aI3
ag74
aI26
aI3
ag77
aI89
aI4
ag58
aI66
aI10
ag22
aI132
aI11
ag88
aI46
aI4
ag168
aI22
aI0
ag74
aI26
aI3
ag7
aI20
aI3
ag49
aI92
aI3
ag840
aI33
aI2
ag15
aI20
aI3
ag71
aI80
aI3
ag20
aI27
aI5
ag7
aI20
aI3
ag89
aI49
aI1
aS'I love the Da Vinci Code.....'
p1020
aI29
aI4
ag24
aI112
aI5
ag63
aI32
aI4
ag121
aI67
aI0
aS'i LOVED the Da Vinci Code.'
p1021
aI26
aI8
aS'huh i hate Harry Potter sorry.'
p1022
aI30
aI2
ag80
aI112
aI11
ag16
aI26
aI20
ag480
aI140
aI6
ag136
aI57
aI5
ag142
aI47
aI3
ag110
aI48
aI3
aS'Brokeback Mountain sucked.'
p1023
aI26
aI2
ag152
aI40
aI2
ag13
aI113
aI1
ag152
aI40
aI2
ag8
aI61
aI4
ag136
aI57
aI5
ag44
aI139
aI4
ag20
aI27
aI5
ag37
aI30
aI2
ag80
aI112
aI11
aS"I'm giving it the benefit of a doubt because even Harry Potter sucked for the first ten pages."
p1024
aI94
aI3
ag37
aI30
aI2
ag41
aI35
aI2
ag18
aI30
aI4
ag27
aI76
aI0
ag53
aI31
aI0
ag8
aI61
aI4
ag74
aI26
aI3
aS'i love brokeback mountain!!!.'
p1025
aI29
aI0
ag35
aI78
aI5
ag53
aI31
aI0
ag112
aI172
aI7
ag173
aI22
aI3
ag112
aI172
aI7
ag85
aI60
aI38
ag49
aI92
aI3
ag68
aI77
aI10
aS'I love Harry Potter, Lilo and Stitch, Barnyard was awesome.'
p1026
aI59
aI6
ag89
aI49
aI1
ag87
aI35
aI1
ag56
aI37
aI5
ag89
aI49
aI1
ag90
aI20
aI3
ag9
aI73
aI17
ag41
aI35
aI2
ag15
aI20
aI3
ag87
aI35
aI1
ag58
aI66
aI10
ag85
aI60
aI38
ag71
aI80
aI3
ag37
aI30
aI2
ag17
aI84
aI4
ag121
aI67
aI0
ag179
aI71
aI0
ag173
aI22
aI3
ag44
aI139
aI4
ag41
aI35
aI2
ag44
aI139
aI4
ag160
aI34
aI2
ag13
aI113
aI1
ag12
aI41
aI11
aS'Brokeback Mountain is awesome.'
p1027
aI30
aI2
ag168
aI22
aI0
ag56
aI37
aI5
ag24
aI112
aI5
ag49
aI92
aI3
ag44
aI139
aI4
ag70
aI47
aI1
ag90
aI20
aI3
ag38
aI44
aI3
ag88
aI46
aI4
ag31
aI204
aI4
ag70
aI47
aI1
ag10
aI21
aI3
aS'. Brokeback Mountain sucked!..'
p1028
aI30
aI2
ag21
aI34
aI4
ag21
aI34
aI4
ag109
aI57
aI5
ag32
aI120
aI0
ag13
aI113
aI1
aS'I ALREADY LOVED THE MISSION IMPOSSIBLE MOVIES:)'
p1029
aI47
aI39
ag67
aI27
aI3
ag41
aI35
aI2
ag31
aI204
aI4
ag57
aI25
aI3
ag12
aI41
aI11
ag70
aI47
aI1
ag14
aI38
aI3
ag53
aI31
aI0
ag35
aI78
aI5
ag13
aI113
aI1
ag10
aI21
aI3
ag136
aI57
aI5
ag109
aI57
aI5
ag14
aI38
aI3
ag168
aI22
aI0
ag109
aI57
aI5
ag86
aI22
aI3
ag41
aI35
aI2
ag9
aI73
aI17
ag37
aI30
aI2
ag133
aI29
aI3
ag38
aI44
aI3
ag39
aI101
aI7
ag160
aI34
aI2
aS'I loved the Da Vinci Code.'
p1030
aI26
aI4
ag136
aI57
aI5
aS"Harry Potter sucks Hairy Otters, it is for the wussies who can't read real books..("
p1031
aI83
aI4
ag51
aI32
aI0
ag19
aI44
aI3
ag90
aI20
aI3
ag87
aI35
aI1
ag12
aI41
aI11
ag173
aI22
aI3
ag57
aI25
aI3
ag15
aI20
aI3
ag142
aI47
aI3
ag29
aI68
aI3
ag74
aI26
aI3
ag32
aI120
aI0
ag57
aI25
aI3
ag31
aI204
aI4
ag48
aI113
aI1
ag72
aI131
aI5
ag88
aI46
aI4
ag15
aI20
aI3
ag56
aI37
aI5
ag56
aI37
aI5
aS'So what has been up lately, well friday went to see Da Vinci Code that sucked but it was cool hanging with some of my friends.'
p1032
aI126
aI4
ag7
aI20
aI3
ag9
aI73
aI17
ag16
aI26
aI20
ag13
aI113
aI1
ag29
aI68
aI3
ag136
aI57
aI5
aS'I Love you and brokeback mountain was a success.'
p1033
aI48
aI2
ag22
aI132
aI11
ag61
aI40
aI9
aS'Brokeback Mountain is the best combonation of the best / most depressing movie ever.'
p1034
aI84
aI2
ag8
aI61
aI4
ag70
aI47
aI1
ag20
aI27
aI5
ag64
aI39
aI3
aS'I love all the Mission Impossible movies, and this one is no exception.'
p1035
aI71
aI3
ag29
aI68
aI3
ag66
aI53
aI0
aS'Brokeback Mountain is a beautiful film!.'
p1036
aI40
aI2
ag116
aI51
aI3
ag43
aI65
aI2
ag88
aI46
aI4
ag15
aI20
aI3
ag15
aI20
aI3
ag17
aI84
aI4
ag42
aI49
aI11
ag42
aI49
aI11
ag41
aI35
aI2
ag10
aI21
aI3
aS'i hear the da vinci code sucks.'
p1037
aI31
aI0
ag49
aI92
aI3
aS"I loved reading Da Vinci Code, can't wait for the movie to come out!.."
p1038
aI70
aI4
aS'and also, The Da Vinci Code is poorly written and boring..'
p1039
aI58
aI4
ag63
aI32
aI4
ag80
aI112
aI11
ag352
aI26
aI5
ag109
aI57
aI5
ag31
aI204
aI4
ag71
aI80
aI3
ag80
aI112
aI11
ag179
aI71
aI0
ag35
aI78
aI5
ag22
aI132
aI11
aS'I also have my kick-ass Harry Potter robe that lends itself nicely to Halloween.'
p1040
aI80
aI4
aS'Then back to my house to watch " Brokeback Mountain " which is a beautiful movie yet sad.'
p1041
aI89
aI3
ag44
aI139
aI4
ag9
aI73
aI17
ag11
aI62
aI3
aS'i miss Brokeback Mountain.'
p1042
aI26
aI2
ag7
aI20
aI3
ag8
aI61
aI4
ag87
aI35
aI1
ag90
aI20
aI3
ag160
aI34
aI2
ag32
aI120
aI0
ag57
aI25
aI3
ag50
aI78
aI8
ag179
aI71
aI0
ag152
aI40
aI2
ag85
aI60
aI38
ag39
aI101
aI7
ag66
aI53
aI0
ag142
aI47
aI3
ag89
aI49
aI1
ag49
aI92
aI3
ag19
aI44
aI3
aS'i saw the da vinci code, which was awesome.'
p1043
aI43
aI0
ag125
aI30
aI4
ag136
aI57
aI5
ag179
aI71
aI0
ag58
aI66
aI10
ag160
aI34
aI2
ag21
aI34
aI4
ag18
aI30
aI4
ag152
aI40
aI2
ag87
aI35
aI1
ag48
aI113
aI1
ag53
aI31
aI0
aS'MISSION IMPOSSIBLE TRECE WAS AWESOME!!!..'
p1044
aI41
aI32
ag31
aI204
aI4
ag57
aI25
aI3
ag52
aI37
aI0
ag70
aI47
aI1
ag77
aI89
aI4
aS'Mission Impossible 3 is AMAZING.'
p1045
aI32
aI9
aS'I love the Da Vinci Code too.'
p1046
aI29
aI4
ag447
aI56
aI7
ag110
aI48
aI3
ag89
aI49
aI1
ag50
aI78
aI8
ag37
aI30
aI2
ag10
aI21
aI3
ag112
aI172
aI7
aS'I love Harry Potter, Twilight, Series of Unfortunate Events, and tons more!'
p1047
aI75
aI7
ag13
aI113
aI1
ag68
aI77
aI10
ag110
aI48
aI3
ag63
aI32
aI4
ag72
aI131
aI5
ag29
aI68
aI3
aS' Mission Impossible 3 sucks like a Theatan energy field!\n0\t Mission Impossible III " sucks, the story of " X-Men:'
p1048
aI113
aI10
ag9
aI73
aI17
ag56
aI37
aI5
ag31
aI204
aI4
ag15
aI20
aI3
ag24
aI112
aI5
ag63
aI32
aI4
ag20
aI27
aI5
ag37
aI30
aI2
ag74
aI26
aI3
aS'I LOVE THE DA VINCI CODE!!!!... < < < < < 3333...'
p1049
aI49
aI19
ag15
aI20
aI3
ag8
aI61
aI4
ag14
aI38
aI3
ag39
aI101
aI7
ag64
aI39
aI3
ag58
aI66
aI10
ag9
aI73
aI17
ag31
aI204
aI4
aS'I love Harry Potter......'
p1050
aI25
aI3
ag142
aI47
aI3
ag168
aI22
aI0
ag8
aI61
aI4
ag160
aI34
aI2
ag61
aI40
aI9
ag88
aI46
aI4
ag41
aI35
aI2
ag67
aI27
aI3
aS'Anyway, I LOVED Brokeback Mountain...'
p1051
aI37
aI9
aS'Marcia Gaither, who teaches classes in Wiccanism, says the controversy about Harry Potter is absurd.'
p1052
aI100
aI5
ag37
aI30
aI2
ag38
aI44
aI3
ag77
aI89
aI4
ag32
aI120
aI0
ag110
aI48
aI3
aS'And I love the Da Vinci Code('
p1053
aI29
aI5
ag49
aI92
aI3
ag21
aI34
aI4
ag12
aI41
aI11
ag16
aI26
aI20
ag7
aI20
aI3
ag49
aI92
aI3
ag48
aI113
aI1
ag22
aI132
aI11
ag22
aI132
aI11
ag53
aI31
aI0
ag8
aI61
aI4
ag173
aI22
aI3
ag48
aI113
aI1
aS'I officially hate the Da Vinci Code, the end.'
p1054
aI45
aI4
ag13
aI113
aI1
ag39
aI101
aI7
ag9
aI73
aI17
ag8
aI61
aI4
ag9
aI73
aI17
ag64
aI39
aI3
ag87
aI35
aI1
aS'Happiness usually comes in the form of my amazing storytimes and my Harry Potter club and my occasional few and far between talks with Julia and Marisa.'
p1055
aI152
aI5
ag87
aI35
aI1
ag35
aI78
aI5
ag52
aI37
aI0
ag57
aI25
aI3
ag80
aI112
aI11
ag50
aI78
aI8
aS'da vinci code was a terrible movie.'
p1056
aI35
aI0
ag67
aI27
aI3
ag160
aI34
aI2
ag70
aI47
aI1
ag13
aI113
aI1
aS'i know i loved the da vinci code too!!!'
p1057
aI39
aI0
ag16
aI26
aI20
ag39
aI101
aI7
aS'hey wait i love brokeback mountain!'
p1058
aI35
aI0
ag116
aI51
aI3
ag16
aI26
aI20
ag90
aI20
aI3
ag15
aI20
aI3
ag38
aI44
aI3
aS'I love the Da Vinci Code.'
p1059
aI25
aI4
ag31
aI204
aI4
ag70
aI47
aI1
ag58
aI66
aI10
ag16
aI26
aI20
ag15
aI20
aI3
ag52
aI37
aI0
ag43
aI65
aI2
ag68
aI77
aI10
ag11
aI62
aI3
ag15
aI20
aI3
aS'mission impossible III kinda sucked.'
p1060
aI36
aI3
ag37
aI30
aI2
ag67
aI27
aI3
ag142
aI47
aI3
ag41
aI35
aI2
ag10
aI21
aI3
ag179
aI71
aI0
ag9
aI73
aI17
ag12
aI41
aI11
ag66
aI53
aI0
aS'Da Vinci Code apparently sucks even more ass on film.'
p1061
aI53
aI3
ag89
aI49
aI1
ag88
aI46
aI4
ag24
aI112
aI5
ag110
aI48
aI3
ag15
aI20
aI3
ag89
aI49
aI1
aS'by the way Mission Impossible 3 was awesome.)'
p1062
aI45
aI2
ag21
aI34
aI4
ag42
aI49
aI11
ag142
aI47
aI3
aS'hell yea i love the mission impossible thing.'
p1063
aI45
aI0
ag68
aI77
aI10
ag31
aI204
aI4
ag22
aI132
aI11
ag51
aI32
aI0
ag37
aI30
aI2
ag57
aI25
aI3
ag12
aI41
aI11
ag133
aI29
aI3
ag53
aI31
aI0
ag21
aI34
aI4
ag10
aI21
aI3
ag77
aI89
aI4
ag49
aI92
aI3
ag152
aI40
aI2
ag56
aI37
aI5
ag52
aI37
aI0
aS"ok it's time to update wow haven't updated for a long time ok so yeah watched over the hedge and mission impossible 3 awesome movies hammy rocks.."
p1064
aI146
aI0
ag142
aI47
aI3
ag11
aI62
aI3
ag18
aI30
aI4
ag9
aI73
aI17
ag116
aI51
aI3
ag61
aI40
aI9
ag48
aI113
aI1
ag160
aI34
aI2
ag74
aI26
aI3
ag88
aI46
aI4
ag39
aI101
aI7
ag50
aI78
aI8
ag20
aI27
aI5
ag179
aI71
aI0
ag11
aI62
aI3
ag136
aI57
aI5
ag72
aI131
aI5
ag85
aI60
aI38
ag63
aI32
aI4
ag168
aI22
aI0
ag20
aI27
aI5
ag41
aI35
aI2
ag20
aI27
aI5
ag57
aI25
aI3
ag116
aI51
aI3
aS'I just love the Harry Potter series.'
p1065
aI36
aI3
ag9
aI73
aI17
ag29
aI68
aI3
aS'and I liked Mission Impossible which I saw for the first time last night...'
p1066
aI75
aI4
aS'The Da Vinci Code sucked, but the night was great.'
p1067
aI50
aI4
ag72
aI131
aI5
ag12
aI41
aI11
aS'I loved Brokeback Mountain...'
p1068
aI29
aI3
ag50
aI78
aI8
ag39
aI101
aI7
ag89
aI49
aI1
ag49
aI92
aI3
ag116
aI51
aI3
ag80
aI112
aI11
aS'* I like Harry Potter..'
p1069
aI23
aI3
ag133
aI29
aI3
ag68
aI77
aI10
ag70
aI47
aI1
ag121
aI67
aI0
ag21
aI34
aI4
aS"\xc2\xa0 I liked Harry Potter and I'll be sorry to see him grow up."
p1070
aI61
aI4
ag72
aI131
aI5
ag49
aI92
aI3
aS'besides drowining myself in the Da Vinci Code -- which, by the way, was awesome!).'
p1071
aI82
aI3
aS'I would like to kill the writers of Brokeback Mountain for ruining my image of cowboys!..'
p1072
aI89
aI3
ag136
aI57
aI5
aS'did i mention the da vinci code sucked big donkey balls?..'
p1073
aI58
aI0
ag70
aI47
aI1
ag8
aI61
aI4
ag32
aI120
aI0
ag22
aI132
aI11
aS'Da Vinci Code looks SO awesome...'
p1074
aI33
aI5
ag87
aI35
aI1
ag27
aI76
aI0
ag9
aI73
aI17
ag15
aI20
aI3
ag49
aI92
aI3
ag10
aI21
aI3
ag51
aI32
aI0
ag80
aI112
aI11
ag29
aI68
aI3
ag10
aI21
aI3
ag88
aI46
aI4
atb.